                                      1 ;--------------------------------------------------------
                                      2 ; File Created by SDCC : free open source ANSI-C Compiler
                                      3 ; Version 4.2.0 #13081 (Linux)
                                      4 ;--------------------------------------------------------
                                      5 	.module fetch6
                                      6 	.optsdcc -mz80
                                      7 	
                                      8 ;--------------------------------------------------------
                                      9 ; Public variables in this module
                                     10 ;--------------------------------------------------------
                                     11 	.globl _main
                                     12 	.globl _close
                                     13 	.globl _open
                                     14 	.globl _write
                                     15 	.globl _read
                                     16 	.globl _strlen
                                     17 	.globl _printf
                                     18 	.globl _buf
                                     19 ;--------------------------------------------------------
                                     20 ; special function registers
                                     21 ;--------------------------------------------------------
                                     22 ;--------------------------------------------------------
                                     23 ; ram data
                                     24 ;--------------------------------------------------------
                                     25 	.area _DATA
      000000                         26 _buf::
      000000                         27 	.ds 256
                                     28 ;--------------------------------------------------------
                                     29 ; ram data
                                     30 ;--------------------------------------------------------
                                     31 	.area _INITIALIZED
                                     32 ;--------------------------------------------------------
                                     33 ; absolute external ram data
                                     34 ;--------------------------------------------------------
                                     35 	.area _DABS (ABS)
                                     36 ;--------------------------------------------------------
                                     37 ; global & static initialisations
                                     38 ;--------------------------------------------------------
                                     39 	.area _HOME
                                     40 	.area _GSINIT
                                     41 	.area _GSFINAL
                                     42 	.area _GSINIT
                                     43 ;--------------------------------------------------------
                                     44 ; Home
                                     45 ;--------------------------------------------------------
                                     46 	.area _HOME
                                     47 	.area _HOME
                                     48 ;--------------------------------------------------------
                                     49 ; code
                                     50 ;--------------------------------------------------------
                                     51 	.area _TEXT
                                     52 ;src/fetch6.c:18: int main () {
                                     53 ;	---------------------------------
                                     54 ; Function main
                                     55 ; ---------------------------------
      000000                         56 _main::
      000000 DD E5            [15]   57 	push	ix
      000002 DD 21 00 00      [14]   58 	ld	ix,#0
      000006 DD 39            [15]   59 	add	ix,sp
      000008 21 14 FD         [10]   60 	ld	hl, #-748
      00000B 39               [11]   61 	add	hl, sp
      00000C F9               [ 6]   62 	ld	sp, hl
                                     63 ;src/fetch6.c:22: zos_dev_t dev = open("B:/info.data", O_WRONLY | O_CREAT | O_TRUNC);
      00000D 3E 0D            [ 7]   64 	ld	a, #0x0d
      00000F F5               [11]   65 	push	af
      000010 33               [ 6]   66 	inc	sp
      000011 21r6Er11         [10]   67 	ld	hl, #___str_0
      000014 CDr00r00         [17]   68 	call	_open
      000017 DD 77 FF         [19]   69 	ld	-1 (ix), a
                                     70 ;src/fetch6.c:25: if (dev < 0) {
      00001A DD CB FF 7E      [20]   71 	bit	7, -1 (ix)
      00001E 28 1D            [12]   72 	jr	Z, 00102$
                                     73 ;src/fetch6.c:26: printf("Error %d occurred1\n", -dev);
      000020 DD 7E FF         [19]   74 	ld	a, -1 (ix)
      000023 4F               [ 4]   75 	ld	c, a
      000024 07               [ 4]   76 	rlca
      000025 9F               [ 4]   77 	sbc	a, a
      000026 47               [ 4]   78 	ld	b, a
      000027 AF               [ 4]   79 	xor	a, a
      000028 91               [ 4]   80 	sub	a, c
      000029 4F               [ 4]   81 	ld	c, a
      00002A 9F               [ 4]   82 	sbc	a, a
      00002B 90               [ 4]   83 	sub	a, b
      00002C 47               [ 4]   84 	ld	b, a
      00002D C5               [11]   85 	push	bc
      00002E 21r7Br11         [10]   86 	ld	hl, #___str_2
      000031 E5               [11]   87 	push	hl
      000032 CDr00r00         [17]   88 	call	_printf
      000035 F1               [10]   89 	pop	af
      000036 F1               [10]   90 	pop	af
                                     91 ;src/fetch6.c:27: return 1;
      000037 11 01 00         [10]   92 	ld	de, #0x0001
      00003A C3r69r11         [10]   93 	jp	00112$
      00003D                         94 00102$:
                                     95 ;src/fetch6.c:32: char buf[] = " .------------------------------------. \n.--:..                              :-- \n.--:                                :-- \n .---.      .   ..  ..   .        .---. \n   :---.    .::.  ... .:-.      .---.   \n     :---.     ...   .:.      .---.     \n       :---:   .:. .:.      .---.       \n         ::. .:. .:.      .---.         \n           .:. .:.      .---.           \n         .:. .:.      .---.  ..         \n       .:. .:.      .---.  .-..:.       \n     .:. .:.      .---:     .:  .:.     \n   .:. .:.      .-------:     .:  .:.   \n  :. .:.       .:::::::::.      .:  .:  \n.:  :.                            .:  :.\n-  -.                              .- .:\n:. .................................. ::\n `..................................../ \n\n\n";
      00003D 21 00 00         [10]   96 	ld	hl, #0
      000040 39               [11]   97 	add	hl, sp
      000041 4D               [ 4]   98 	ld	c, l
      000042 44               [ 4]   99 	ld	b, h
      000043 3E 20            [ 7]  100 	ld	a, #0x20
      000045 02               [ 7]  101 	ld	(bc), a
      000046 69               [ 4]  102 	ld	l, c
                                    103 ;	spillPairReg hl
                                    104 ;	spillPairReg hl
      000047 60               [ 4]  105 	ld	h, b
                                    106 ;	spillPairReg hl
                                    107 ;	spillPairReg hl
      000048 23               [ 6]  108 	inc	hl
      000049 36 2E            [10]  109 	ld	(hl), #0x2e
      00004B 69               [ 4]  110 	ld	l, c
                                    111 ;	spillPairReg hl
                                    112 ;	spillPairReg hl
      00004C 60               [ 4]  113 	ld	h, b
                                    114 ;	spillPairReg hl
                                    115 ;	spillPairReg hl
      00004D 23               [ 6]  116 	inc	hl
      00004E 23               [ 6]  117 	inc	hl
      00004F 36 2D            [10]  118 	ld	(hl), #0x2d
      000051 69               [ 4]  119 	ld	l, c
                                    120 ;	spillPairReg hl
                                    121 ;	spillPairReg hl
      000052 60               [ 4]  122 	ld	h, b
                                    123 ;	spillPairReg hl
                                    124 ;	spillPairReg hl
      000053 23               [ 6]  125 	inc	hl
      000054 23               [ 6]  126 	inc	hl
      000055 23               [ 6]  127 	inc	hl
      000056 36 2D            [10]  128 	ld	(hl), #0x2d
      000058 21 04 00         [10]  129 	ld	hl, #0x0004
      00005B 09               [11]  130 	add	hl, bc
      00005C 36 2D            [10]  131 	ld	(hl), #0x2d
      00005E 21 05 00         [10]  132 	ld	hl, #0x0005
      000061 09               [11]  133 	add	hl, bc
      000062 36 2D            [10]  134 	ld	(hl), #0x2d
      000064 21 06 00         [10]  135 	ld	hl, #0x0006
      000067 09               [11]  136 	add	hl, bc
      000068 36 2D            [10]  137 	ld	(hl), #0x2d
      00006A 21 07 00         [10]  138 	ld	hl, #0x0007
      00006D 09               [11]  139 	add	hl, bc
      00006E 36 2D            [10]  140 	ld	(hl), #0x2d
      000070 21 08 00         [10]  141 	ld	hl, #0x0008
      000073 09               [11]  142 	add	hl, bc
      000074 36 2D            [10]  143 	ld	(hl), #0x2d
      000076 21 09 00         [10]  144 	ld	hl, #0x0009
      000079 09               [11]  145 	add	hl, bc
      00007A 36 2D            [10]  146 	ld	(hl), #0x2d
      00007C 21 0A 00         [10]  147 	ld	hl, #0x000a
      00007F 09               [11]  148 	add	hl, bc
      000080 36 2D            [10]  149 	ld	(hl), #0x2d
      000082 21 0B 00         [10]  150 	ld	hl, #0x000b
      000085 09               [11]  151 	add	hl, bc
      000086 36 2D            [10]  152 	ld	(hl), #0x2d
      000088 21 0C 00         [10]  153 	ld	hl, #0x000c
      00008B 09               [11]  154 	add	hl, bc
      00008C 36 2D            [10]  155 	ld	(hl), #0x2d
      00008E 21 0D 00         [10]  156 	ld	hl, #0x000d
      000091 09               [11]  157 	add	hl, bc
      000092 36 2D            [10]  158 	ld	(hl), #0x2d
      000094 21 0E 00         [10]  159 	ld	hl, #0x000e
      000097 09               [11]  160 	add	hl, bc
      000098 36 2D            [10]  161 	ld	(hl), #0x2d
      00009A 21 0F 00         [10]  162 	ld	hl, #0x000f
      00009D 09               [11]  163 	add	hl, bc
      00009E 36 2D            [10]  164 	ld	(hl), #0x2d
      0000A0 21 10 00         [10]  165 	ld	hl, #0x0010
      0000A3 09               [11]  166 	add	hl, bc
      0000A4 36 2D            [10]  167 	ld	(hl), #0x2d
      0000A6 21 11 00         [10]  168 	ld	hl, #0x0011
      0000A9 09               [11]  169 	add	hl, bc
      0000AA 36 2D            [10]  170 	ld	(hl), #0x2d
      0000AC 21 12 00         [10]  171 	ld	hl, #0x0012
      0000AF 09               [11]  172 	add	hl, bc
      0000B0 36 2D            [10]  173 	ld	(hl), #0x2d
      0000B2 21 13 00         [10]  174 	ld	hl, #0x0013
      0000B5 09               [11]  175 	add	hl, bc
      0000B6 36 2D            [10]  176 	ld	(hl), #0x2d
      0000B8 21 14 00         [10]  177 	ld	hl, #0x0014
      0000BB 09               [11]  178 	add	hl, bc
      0000BC 36 2D            [10]  179 	ld	(hl), #0x2d
      0000BE 21 15 00         [10]  180 	ld	hl, #0x0015
      0000C1 09               [11]  181 	add	hl, bc
      0000C2 36 2D            [10]  182 	ld	(hl), #0x2d
      0000C4 21 16 00         [10]  183 	ld	hl, #0x0016
      0000C7 09               [11]  184 	add	hl, bc
      0000C8 36 2D            [10]  185 	ld	(hl), #0x2d
      0000CA 21 17 00         [10]  186 	ld	hl, #0x0017
      0000CD 09               [11]  187 	add	hl, bc
      0000CE 36 2D            [10]  188 	ld	(hl), #0x2d
      0000D0 21 18 00         [10]  189 	ld	hl, #0x0018
      0000D3 09               [11]  190 	add	hl, bc
      0000D4 36 2D            [10]  191 	ld	(hl), #0x2d
      0000D6 21 19 00         [10]  192 	ld	hl, #0x0019
      0000D9 09               [11]  193 	add	hl, bc
      0000DA 36 2D            [10]  194 	ld	(hl), #0x2d
      0000DC 21 1A 00         [10]  195 	ld	hl, #0x001a
      0000DF 09               [11]  196 	add	hl, bc
      0000E0 36 2D            [10]  197 	ld	(hl), #0x2d
      0000E2 21 1B 00         [10]  198 	ld	hl, #0x001b
      0000E5 09               [11]  199 	add	hl, bc
      0000E6 36 2D            [10]  200 	ld	(hl), #0x2d
      0000E8 21 1C 00         [10]  201 	ld	hl, #0x001c
      0000EB 09               [11]  202 	add	hl, bc
      0000EC 36 2D            [10]  203 	ld	(hl), #0x2d
      0000EE 21 1D 00         [10]  204 	ld	hl, #0x001d
      0000F1 09               [11]  205 	add	hl, bc
      0000F2 36 2D            [10]  206 	ld	(hl), #0x2d
      0000F4 21 1E 00         [10]  207 	ld	hl, #0x001e
      0000F7 09               [11]  208 	add	hl, bc
      0000F8 36 2D            [10]  209 	ld	(hl), #0x2d
      0000FA 21 1F 00         [10]  210 	ld	hl, #0x001f
      0000FD 09               [11]  211 	add	hl, bc
      0000FE 36 2D            [10]  212 	ld	(hl), #0x2d
      000100 21 20 00         [10]  213 	ld	hl, #0x0020
      000103 09               [11]  214 	add	hl, bc
      000104 36 2D            [10]  215 	ld	(hl), #0x2d
      000106 21 21 00         [10]  216 	ld	hl, #0x0021
      000109 09               [11]  217 	add	hl, bc
      00010A 36 2D            [10]  218 	ld	(hl), #0x2d
      00010C 21 22 00         [10]  219 	ld	hl, #0x0022
      00010F 09               [11]  220 	add	hl, bc
      000110 36 2D            [10]  221 	ld	(hl), #0x2d
      000112 21 23 00         [10]  222 	ld	hl, #0x0023
      000115 09               [11]  223 	add	hl, bc
      000116 36 2D            [10]  224 	ld	(hl), #0x2d
      000118 21 24 00         [10]  225 	ld	hl, #0x0024
      00011B 09               [11]  226 	add	hl, bc
      00011C 36 2D            [10]  227 	ld	(hl), #0x2d
      00011E 21 25 00         [10]  228 	ld	hl, #0x0025
      000121 09               [11]  229 	add	hl, bc
      000122 36 2D            [10]  230 	ld	(hl), #0x2d
      000124 21 26 00         [10]  231 	ld	hl, #0x0026
      000127 09               [11]  232 	add	hl, bc
      000128 36 2E            [10]  233 	ld	(hl), #0x2e
      00012A 21 27 00         [10]  234 	ld	hl, #0x0027
      00012D 09               [11]  235 	add	hl, bc
      00012E 36 20            [10]  236 	ld	(hl), #0x20
      000130 21 28 00         [10]  237 	ld	hl, #0x0028
      000133 09               [11]  238 	add	hl, bc
      000134 36 0A            [10]  239 	ld	(hl), #0x0a
      000136 21 29 00         [10]  240 	ld	hl, #0x0029
      000139 09               [11]  241 	add	hl, bc
      00013A 36 2E            [10]  242 	ld	(hl), #0x2e
      00013C 21 2A 00         [10]  243 	ld	hl, #0x002a
      00013F 09               [11]  244 	add	hl, bc
      000140 36 2D            [10]  245 	ld	(hl), #0x2d
      000142 21 2B 00         [10]  246 	ld	hl, #0x002b
      000145 09               [11]  247 	add	hl, bc
      000146 36 2D            [10]  248 	ld	(hl), #0x2d
      000148 21 2C 00         [10]  249 	ld	hl, #0x002c
      00014B 09               [11]  250 	add	hl, bc
      00014C 36 3A            [10]  251 	ld	(hl), #0x3a
      00014E 21 2D 00         [10]  252 	ld	hl, #0x002d
      000151 09               [11]  253 	add	hl, bc
      000152 36 2E            [10]  254 	ld	(hl), #0x2e
      000154 21 2E 00         [10]  255 	ld	hl, #0x002e
      000157 09               [11]  256 	add	hl, bc
      000158 36 2E            [10]  257 	ld	(hl), #0x2e
      00015A 21 2F 00         [10]  258 	ld	hl, #0x002f
      00015D 09               [11]  259 	add	hl, bc
      00015E 36 20            [10]  260 	ld	(hl), #0x20
      000160 21 30 00         [10]  261 	ld	hl, #0x0030
      000163 09               [11]  262 	add	hl, bc
      000164 36 20            [10]  263 	ld	(hl), #0x20
      000166 21 31 00         [10]  264 	ld	hl, #0x0031
      000169 09               [11]  265 	add	hl, bc
      00016A 36 20            [10]  266 	ld	(hl), #0x20
      00016C 21 32 00         [10]  267 	ld	hl, #0x0032
      00016F 09               [11]  268 	add	hl, bc
      000170 36 20            [10]  269 	ld	(hl), #0x20
      000172 21 33 00         [10]  270 	ld	hl, #0x0033
      000175 09               [11]  271 	add	hl, bc
      000176 36 20            [10]  272 	ld	(hl), #0x20
      000178 21 34 00         [10]  273 	ld	hl, #0x0034
      00017B 09               [11]  274 	add	hl, bc
      00017C 36 20            [10]  275 	ld	(hl), #0x20
      00017E 21 35 00         [10]  276 	ld	hl, #0x0035
      000181 09               [11]  277 	add	hl, bc
      000182 36 20            [10]  278 	ld	(hl), #0x20
      000184 21 36 00         [10]  279 	ld	hl, #0x0036
      000187 09               [11]  280 	add	hl, bc
      000188 36 20            [10]  281 	ld	(hl), #0x20
      00018A 21 37 00         [10]  282 	ld	hl, #0x0037
      00018D 09               [11]  283 	add	hl, bc
      00018E 36 20            [10]  284 	ld	(hl), #0x20
      000190 21 38 00         [10]  285 	ld	hl, #0x0038
      000193 09               [11]  286 	add	hl, bc
      000194 36 20            [10]  287 	ld	(hl), #0x20
      000196 21 39 00         [10]  288 	ld	hl, #0x0039
      000199 09               [11]  289 	add	hl, bc
      00019A 36 20            [10]  290 	ld	(hl), #0x20
      00019C 21 3A 00         [10]  291 	ld	hl, #0x003a
      00019F 09               [11]  292 	add	hl, bc
      0001A0 36 20            [10]  293 	ld	(hl), #0x20
      0001A2 21 3B 00         [10]  294 	ld	hl, #0x003b
      0001A5 09               [11]  295 	add	hl, bc
      0001A6 36 20            [10]  296 	ld	(hl), #0x20
      0001A8 21 3C 00         [10]  297 	ld	hl, #0x003c
      0001AB 09               [11]  298 	add	hl, bc
      0001AC 36 20            [10]  299 	ld	(hl), #0x20
      0001AE 21 3D 00         [10]  300 	ld	hl, #0x003d
      0001B1 09               [11]  301 	add	hl, bc
      0001B2 36 20            [10]  302 	ld	(hl), #0x20
      0001B4 21 3E 00         [10]  303 	ld	hl, #0x003e
      0001B7 09               [11]  304 	add	hl, bc
      0001B8 36 20            [10]  305 	ld	(hl), #0x20
      0001BA 21 3F 00         [10]  306 	ld	hl, #0x003f
      0001BD 09               [11]  307 	add	hl, bc
      0001BE 36 20            [10]  308 	ld	(hl), #0x20
      0001C0 21 40 00         [10]  309 	ld	hl, #0x0040
      0001C3 09               [11]  310 	add	hl, bc
      0001C4 36 20            [10]  311 	ld	(hl), #0x20
      0001C6 21 41 00         [10]  312 	ld	hl, #0x0041
      0001C9 09               [11]  313 	add	hl, bc
      0001CA 36 20            [10]  314 	ld	(hl), #0x20
      0001CC 21 42 00         [10]  315 	ld	hl, #0x0042
      0001CF 09               [11]  316 	add	hl, bc
      0001D0 36 20            [10]  317 	ld	(hl), #0x20
      0001D2 21 43 00         [10]  318 	ld	hl, #0x0043
      0001D5 09               [11]  319 	add	hl, bc
      0001D6 36 20            [10]  320 	ld	(hl), #0x20
      0001D8 21 44 00         [10]  321 	ld	hl, #0x0044
      0001DB 09               [11]  322 	add	hl, bc
      0001DC 36 20            [10]  323 	ld	(hl), #0x20
      0001DE 21 45 00         [10]  324 	ld	hl, #0x0045
      0001E1 09               [11]  325 	add	hl, bc
      0001E2 36 20            [10]  326 	ld	(hl), #0x20
      0001E4 21 46 00         [10]  327 	ld	hl, #0x0046
      0001E7 09               [11]  328 	add	hl, bc
      0001E8 36 20            [10]  329 	ld	(hl), #0x20
      0001EA 21 47 00         [10]  330 	ld	hl, #0x0047
      0001ED 09               [11]  331 	add	hl, bc
      0001EE 36 20            [10]  332 	ld	(hl), #0x20
      0001F0 21 48 00         [10]  333 	ld	hl, #0x0048
      0001F3 09               [11]  334 	add	hl, bc
      0001F4 36 20            [10]  335 	ld	(hl), #0x20
      0001F6 21 49 00         [10]  336 	ld	hl, #0x0049
      0001F9 09               [11]  337 	add	hl, bc
      0001FA 36 20            [10]  338 	ld	(hl), #0x20
      0001FC 21 4A 00         [10]  339 	ld	hl, #0x004a
      0001FF 09               [11]  340 	add	hl, bc
      000200 36 20            [10]  341 	ld	(hl), #0x20
      000202 21 4B 00         [10]  342 	ld	hl, #0x004b
      000205 09               [11]  343 	add	hl, bc
      000206 36 20            [10]  344 	ld	(hl), #0x20
      000208 21 4C 00         [10]  345 	ld	hl, #0x004c
      00020B 09               [11]  346 	add	hl, bc
      00020C 36 20            [10]  347 	ld	(hl), #0x20
      00020E 21 4D 00         [10]  348 	ld	hl, #0x004d
      000211 09               [11]  349 	add	hl, bc
      000212 36 3A            [10]  350 	ld	(hl), #0x3a
      000214 21 4E 00         [10]  351 	ld	hl, #0x004e
      000217 09               [11]  352 	add	hl, bc
      000218 36 2D            [10]  353 	ld	(hl), #0x2d
      00021A 21 4F 00         [10]  354 	ld	hl, #0x004f
      00021D 09               [11]  355 	add	hl, bc
      00021E 36 2D            [10]  356 	ld	(hl), #0x2d
      000220 21 50 00         [10]  357 	ld	hl, #0x0050
      000223 09               [11]  358 	add	hl, bc
      000224 36 20            [10]  359 	ld	(hl), #0x20
      000226 21 51 00         [10]  360 	ld	hl, #0x0051
      000229 09               [11]  361 	add	hl, bc
      00022A 36 0A            [10]  362 	ld	(hl), #0x0a
      00022C 21 52 00         [10]  363 	ld	hl, #0x0052
      00022F 09               [11]  364 	add	hl, bc
      000230 36 2E            [10]  365 	ld	(hl), #0x2e
      000232 21 53 00         [10]  366 	ld	hl, #0x0053
      000235 09               [11]  367 	add	hl, bc
      000236 36 2D            [10]  368 	ld	(hl), #0x2d
      000238 21 54 00         [10]  369 	ld	hl, #0x0054
      00023B 09               [11]  370 	add	hl, bc
      00023C 36 2D            [10]  371 	ld	(hl), #0x2d
      00023E 21 55 00         [10]  372 	ld	hl, #0x0055
      000241 09               [11]  373 	add	hl, bc
      000242 36 3A            [10]  374 	ld	(hl), #0x3a
      000244 21 56 00         [10]  375 	ld	hl, #0x0056
      000247 09               [11]  376 	add	hl, bc
      000248 36 20            [10]  377 	ld	(hl), #0x20
      00024A 21 57 00         [10]  378 	ld	hl, #0x0057
      00024D 09               [11]  379 	add	hl, bc
      00024E 36 20            [10]  380 	ld	(hl), #0x20
      000250 21 58 00         [10]  381 	ld	hl, #0x0058
      000253 09               [11]  382 	add	hl, bc
      000254 36 20            [10]  383 	ld	(hl), #0x20
      000256 21 59 00         [10]  384 	ld	hl, #0x0059
      000259 09               [11]  385 	add	hl, bc
      00025A 36 20            [10]  386 	ld	(hl), #0x20
      00025C 21 5A 00         [10]  387 	ld	hl, #0x005a
      00025F 09               [11]  388 	add	hl, bc
      000260 36 20            [10]  389 	ld	(hl), #0x20
      000262 21 5B 00         [10]  390 	ld	hl, #0x005b
      000265 09               [11]  391 	add	hl, bc
      000266 36 20            [10]  392 	ld	(hl), #0x20
      000268 21 5C 00         [10]  393 	ld	hl, #0x005c
      00026B 09               [11]  394 	add	hl, bc
      00026C 36 20            [10]  395 	ld	(hl), #0x20
      00026E 21 5D 00         [10]  396 	ld	hl, #0x005d
      000271 09               [11]  397 	add	hl, bc
      000272 36 20            [10]  398 	ld	(hl), #0x20
      000274 21 5E 00         [10]  399 	ld	hl, #0x005e
      000277 09               [11]  400 	add	hl, bc
      000278 36 20            [10]  401 	ld	(hl), #0x20
      00027A 21 5F 00         [10]  402 	ld	hl, #0x005f
      00027D 09               [11]  403 	add	hl, bc
      00027E 36 20            [10]  404 	ld	(hl), #0x20
      000280 21 60 00         [10]  405 	ld	hl, #0x0060
      000283 09               [11]  406 	add	hl, bc
      000284 36 20            [10]  407 	ld	(hl), #0x20
      000286 21 61 00         [10]  408 	ld	hl, #0x0061
      000289 09               [11]  409 	add	hl, bc
      00028A 36 20            [10]  410 	ld	(hl), #0x20
      00028C 21 62 00         [10]  411 	ld	hl, #0x0062
      00028F 09               [11]  412 	add	hl, bc
      000290 36 20            [10]  413 	ld	(hl), #0x20
      000292 21 63 00         [10]  414 	ld	hl, #0x0063
      000295 09               [11]  415 	add	hl, bc
      000296 36 20            [10]  416 	ld	(hl), #0x20
      000298 21 64 00         [10]  417 	ld	hl, #0x0064
      00029B 09               [11]  418 	add	hl, bc
      00029C 36 20            [10]  419 	ld	(hl), #0x20
      00029E 21 65 00         [10]  420 	ld	hl, #0x0065
      0002A1 09               [11]  421 	add	hl, bc
      0002A2 36 20            [10]  422 	ld	(hl), #0x20
      0002A4 21 66 00         [10]  423 	ld	hl, #0x0066
      0002A7 09               [11]  424 	add	hl, bc
      0002A8 36 20            [10]  425 	ld	(hl), #0x20
      0002AA 21 67 00         [10]  426 	ld	hl, #0x0067
      0002AD 09               [11]  427 	add	hl, bc
      0002AE 36 20            [10]  428 	ld	(hl), #0x20
      0002B0 21 68 00         [10]  429 	ld	hl, #0x0068
      0002B3 09               [11]  430 	add	hl, bc
      0002B4 36 20            [10]  431 	ld	(hl), #0x20
      0002B6 21 69 00         [10]  432 	ld	hl, #0x0069
      0002B9 09               [11]  433 	add	hl, bc
      0002BA 36 20            [10]  434 	ld	(hl), #0x20
      0002BC 21 6A 00         [10]  435 	ld	hl, #0x006a
      0002BF 09               [11]  436 	add	hl, bc
      0002C0 36 20            [10]  437 	ld	(hl), #0x20
      0002C2 21 6B 00         [10]  438 	ld	hl, #0x006b
      0002C5 09               [11]  439 	add	hl, bc
      0002C6 36 20            [10]  440 	ld	(hl), #0x20
      0002C8 21 6C 00         [10]  441 	ld	hl, #0x006c
      0002CB 09               [11]  442 	add	hl, bc
      0002CC 36 20            [10]  443 	ld	(hl), #0x20
      0002CE 21 6D 00         [10]  444 	ld	hl, #0x006d
      0002D1 09               [11]  445 	add	hl, bc
      0002D2 36 20            [10]  446 	ld	(hl), #0x20
      0002D4 21 6E 00         [10]  447 	ld	hl, #0x006e
      0002D7 09               [11]  448 	add	hl, bc
      0002D8 36 20            [10]  449 	ld	(hl), #0x20
      0002DA 21 6F 00         [10]  450 	ld	hl, #0x006f
      0002DD 09               [11]  451 	add	hl, bc
      0002DE 36 20            [10]  452 	ld	(hl), #0x20
      0002E0 21 70 00         [10]  453 	ld	hl, #0x0070
      0002E3 09               [11]  454 	add	hl, bc
      0002E4 36 20            [10]  455 	ld	(hl), #0x20
      0002E6 21 71 00         [10]  456 	ld	hl, #0x0071
      0002E9 09               [11]  457 	add	hl, bc
      0002EA 36 20            [10]  458 	ld	(hl), #0x20
      0002EC 21 72 00         [10]  459 	ld	hl, #0x0072
      0002EF 09               [11]  460 	add	hl, bc
      0002F0 36 20            [10]  461 	ld	(hl), #0x20
      0002F2 21 73 00         [10]  462 	ld	hl, #0x0073
      0002F5 09               [11]  463 	add	hl, bc
      0002F6 36 20            [10]  464 	ld	(hl), #0x20
      0002F8 21 74 00         [10]  465 	ld	hl, #0x0074
      0002FB 09               [11]  466 	add	hl, bc
      0002FC 36 20            [10]  467 	ld	(hl), #0x20
      0002FE 21 75 00         [10]  468 	ld	hl, #0x0075
      000301 09               [11]  469 	add	hl, bc
      000302 36 20            [10]  470 	ld	(hl), #0x20
      000304 21 76 00         [10]  471 	ld	hl, #0x0076
      000307 09               [11]  472 	add	hl, bc
      000308 36 3A            [10]  473 	ld	(hl), #0x3a
      00030A 21 77 00         [10]  474 	ld	hl, #0x0077
      00030D 09               [11]  475 	add	hl, bc
      00030E 36 2D            [10]  476 	ld	(hl), #0x2d
      000310 21 78 00         [10]  477 	ld	hl, #0x0078
      000313 09               [11]  478 	add	hl, bc
      000314 36 2D            [10]  479 	ld	(hl), #0x2d
      000316 21 79 00         [10]  480 	ld	hl, #0x0079
      000319 09               [11]  481 	add	hl, bc
      00031A 36 20            [10]  482 	ld	(hl), #0x20
      00031C 21 7A 00         [10]  483 	ld	hl, #0x007a
      00031F 09               [11]  484 	add	hl, bc
      000320 36 0A            [10]  485 	ld	(hl), #0x0a
      000322 21 7B 00         [10]  486 	ld	hl, #0x007b
      000325 09               [11]  487 	add	hl, bc
      000326 36 20            [10]  488 	ld	(hl), #0x20
      000328 21 7C 00         [10]  489 	ld	hl, #0x007c
      00032B 09               [11]  490 	add	hl, bc
      00032C 36 2E            [10]  491 	ld	(hl), #0x2e
      00032E 21 7D 00         [10]  492 	ld	hl, #0x007d
      000331 09               [11]  493 	add	hl, bc
      000332 36 2D            [10]  494 	ld	(hl), #0x2d
      000334 21 7E 00         [10]  495 	ld	hl, #0x007e
      000337 09               [11]  496 	add	hl, bc
      000338 36 2D            [10]  497 	ld	(hl), #0x2d
      00033A 21 7F 00         [10]  498 	ld	hl, #0x007f
      00033D 09               [11]  499 	add	hl, bc
      00033E 36 2D            [10]  500 	ld	(hl), #0x2d
      000340 21 80 00         [10]  501 	ld	hl, #0x0080
      000343 09               [11]  502 	add	hl, bc
      000344 36 2E            [10]  503 	ld	(hl), #0x2e
      000346 21 81 00         [10]  504 	ld	hl, #0x0081
      000349 09               [11]  505 	add	hl, bc
      00034A 36 20            [10]  506 	ld	(hl), #0x20
      00034C 21 82 00         [10]  507 	ld	hl, #0x0082
      00034F 09               [11]  508 	add	hl, bc
      000350 36 20            [10]  509 	ld	(hl), #0x20
      000352 21 83 00         [10]  510 	ld	hl, #0x0083
      000355 09               [11]  511 	add	hl, bc
      000356 36 20            [10]  512 	ld	(hl), #0x20
      000358 21 84 00         [10]  513 	ld	hl, #0x0084
      00035B 09               [11]  514 	add	hl, bc
      00035C 36 20            [10]  515 	ld	(hl), #0x20
      00035E 21 85 00         [10]  516 	ld	hl, #0x0085
      000361 09               [11]  517 	add	hl, bc
      000362 36 20            [10]  518 	ld	(hl), #0x20
      000364 21 86 00         [10]  519 	ld	hl, #0x0086
      000367 09               [11]  520 	add	hl, bc
      000368 36 20            [10]  521 	ld	(hl), #0x20
      00036A 21 87 00         [10]  522 	ld	hl, #0x0087
      00036D 09               [11]  523 	add	hl, bc
      00036E 36 2E            [10]  524 	ld	(hl), #0x2e
      000370 21 88 00         [10]  525 	ld	hl, #0x0088
      000373 09               [11]  526 	add	hl, bc
      000374 36 20            [10]  527 	ld	(hl), #0x20
      000376 21 89 00         [10]  528 	ld	hl, #0x0089
      000379 09               [11]  529 	add	hl, bc
      00037A 36 20            [10]  530 	ld	(hl), #0x20
      00037C 21 8A 00         [10]  531 	ld	hl, #0x008a
      00037F 09               [11]  532 	add	hl, bc
      000380 36 20            [10]  533 	ld	(hl), #0x20
      000382 21 8B 00         [10]  534 	ld	hl, #0x008b
      000385 09               [11]  535 	add	hl, bc
      000386 36 2E            [10]  536 	ld	(hl), #0x2e
      000388 21 8C 00         [10]  537 	ld	hl, #0x008c
      00038B 09               [11]  538 	add	hl, bc
      00038C 36 2E            [10]  539 	ld	(hl), #0x2e
      00038E 21 8D 00         [10]  540 	ld	hl, #0x008d
      000391 09               [11]  541 	add	hl, bc
      000392 36 20            [10]  542 	ld	(hl), #0x20
      000394 21 8E 00         [10]  543 	ld	hl, #0x008e
      000397 09               [11]  544 	add	hl, bc
      000398 36 20            [10]  545 	ld	(hl), #0x20
      00039A 21 8F 00         [10]  546 	ld	hl, #0x008f
      00039D 09               [11]  547 	add	hl, bc
      00039E 36 2E            [10]  548 	ld	(hl), #0x2e
      0003A0 21 90 00         [10]  549 	ld	hl, #0x0090
      0003A3 09               [11]  550 	add	hl, bc
      0003A4 36 2E            [10]  551 	ld	(hl), #0x2e
      0003A6 21 91 00         [10]  552 	ld	hl, #0x0091
      0003A9 09               [11]  553 	add	hl, bc
      0003AA 36 20            [10]  554 	ld	(hl), #0x20
      0003AC 21 92 00         [10]  555 	ld	hl, #0x0092
      0003AF 09               [11]  556 	add	hl, bc
      0003B0 36 20            [10]  557 	ld	(hl), #0x20
      0003B2 21 93 00         [10]  558 	ld	hl, #0x0093
      0003B5 09               [11]  559 	add	hl, bc
      0003B6 36 20            [10]  560 	ld	(hl), #0x20
      0003B8 21 94 00         [10]  561 	ld	hl, #0x0094
      0003BB 09               [11]  562 	add	hl, bc
      0003BC 36 2E            [10]  563 	ld	(hl), #0x2e
      0003BE 21 95 00         [10]  564 	ld	hl, #0x0095
      0003C1 09               [11]  565 	add	hl, bc
      0003C2 36 20            [10]  566 	ld	(hl), #0x20
      0003C4 21 96 00         [10]  567 	ld	hl, #0x0096
      0003C7 09               [11]  568 	add	hl, bc
      0003C8 36 20            [10]  569 	ld	(hl), #0x20
      0003CA 21 97 00         [10]  570 	ld	hl, #0x0097
      0003CD 09               [11]  571 	add	hl, bc
      0003CE 36 20            [10]  572 	ld	(hl), #0x20
      0003D0 21 98 00         [10]  573 	ld	hl, #0x0098
      0003D3 09               [11]  574 	add	hl, bc
      0003D4 36 20            [10]  575 	ld	(hl), #0x20
      0003D6 21 99 00         [10]  576 	ld	hl, #0x0099
      0003D9 09               [11]  577 	add	hl, bc
      0003DA 36 20            [10]  578 	ld	(hl), #0x20
      0003DC 21 9A 00         [10]  579 	ld	hl, #0x009a
      0003DF 09               [11]  580 	add	hl, bc
      0003E0 36 20            [10]  581 	ld	(hl), #0x20
      0003E2 21 9B 00         [10]  582 	ld	hl, #0x009b
      0003E5 09               [11]  583 	add	hl, bc
      0003E6 36 20            [10]  584 	ld	(hl), #0x20
      0003E8 21 9C 00         [10]  585 	ld	hl, #0x009c
      0003EB 09               [11]  586 	add	hl, bc
      0003EC 36 20            [10]  587 	ld	(hl), #0x20
      0003EE 21 9D 00         [10]  588 	ld	hl, #0x009d
      0003F1 09               [11]  589 	add	hl, bc
      0003F2 36 2E            [10]  590 	ld	(hl), #0x2e
      0003F4 21 9E 00         [10]  591 	ld	hl, #0x009e
      0003F7 09               [11]  592 	add	hl, bc
      0003F8 36 2D            [10]  593 	ld	(hl), #0x2d
      0003FA 21 9F 00         [10]  594 	ld	hl, #0x009f
      0003FD 09               [11]  595 	add	hl, bc
      0003FE 36 2D            [10]  596 	ld	(hl), #0x2d
      000400 21 A0 00         [10]  597 	ld	hl, #0x00a0
      000403 09               [11]  598 	add	hl, bc
      000404 36 2D            [10]  599 	ld	(hl), #0x2d
      000406 21 A1 00         [10]  600 	ld	hl, #0x00a1
      000409 09               [11]  601 	add	hl, bc
      00040A 36 2E            [10]  602 	ld	(hl), #0x2e
      00040C 21 A2 00         [10]  603 	ld	hl, #0x00a2
      00040F 09               [11]  604 	add	hl, bc
      000410 36 20            [10]  605 	ld	(hl), #0x20
      000412 21 A3 00         [10]  606 	ld	hl, #0x00a3
      000415 09               [11]  607 	add	hl, bc
      000416 36 0A            [10]  608 	ld	(hl), #0x0a
      000418 21 A4 00         [10]  609 	ld	hl, #0x00a4
      00041B 09               [11]  610 	add	hl, bc
      00041C 36 20            [10]  611 	ld	(hl), #0x20
      00041E 21 A5 00         [10]  612 	ld	hl, #0x00a5
      000421 09               [11]  613 	add	hl, bc
      000422 36 20            [10]  614 	ld	(hl), #0x20
      000424 21 A6 00         [10]  615 	ld	hl, #0x00a6
      000427 09               [11]  616 	add	hl, bc
      000428 36 20            [10]  617 	ld	(hl), #0x20
      00042A 21 A7 00         [10]  618 	ld	hl, #0x00a7
      00042D 09               [11]  619 	add	hl, bc
      00042E 36 3A            [10]  620 	ld	(hl), #0x3a
      000430 21 A8 00         [10]  621 	ld	hl, #0x00a8
      000433 09               [11]  622 	add	hl, bc
      000434 36 2D            [10]  623 	ld	(hl), #0x2d
      000436 21 A9 00         [10]  624 	ld	hl, #0x00a9
      000439 09               [11]  625 	add	hl, bc
      00043A 36 2D            [10]  626 	ld	(hl), #0x2d
      00043C 21 AA 00         [10]  627 	ld	hl, #0x00aa
      00043F 09               [11]  628 	add	hl, bc
      000440 36 2D            [10]  629 	ld	(hl), #0x2d
      000442 21 AB 00         [10]  630 	ld	hl, #0x00ab
      000445 09               [11]  631 	add	hl, bc
      000446 36 2E            [10]  632 	ld	(hl), #0x2e
      000448 21 AC 00         [10]  633 	ld	hl, #0x00ac
      00044B 09               [11]  634 	add	hl, bc
      00044C 36 20            [10]  635 	ld	(hl), #0x20
      00044E 21 AD 00         [10]  636 	ld	hl, #0x00ad
      000451 09               [11]  637 	add	hl, bc
      000452 36 20            [10]  638 	ld	(hl), #0x20
      000454 21 AE 00         [10]  639 	ld	hl, #0x00ae
      000457 09               [11]  640 	add	hl, bc
      000458 36 20            [10]  641 	ld	(hl), #0x20
      00045A 21 AF 00         [10]  642 	ld	hl, #0x00af
      00045D 09               [11]  643 	add	hl, bc
      00045E 36 20            [10]  644 	ld	(hl), #0x20
      000460 21 B0 00         [10]  645 	ld	hl, #0x00b0
      000463 09               [11]  646 	add	hl, bc
      000464 36 2E            [10]  647 	ld	(hl), #0x2e
      000466 21 B1 00         [10]  648 	ld	hl, #0x00b1
      000469 09               [11]  649 	add	hl, bc
      00046A 36 3A            [10]  650 	ld	(hl), #0x3a
      00046C 21 B2 00         [10]  651 	ld	hl, #0x00b2
      00046F 09               [11]  652 	add	hl, bc
      000470 36 3A            [10]  653 	ld	(hl), #0x3a
      000472 21 B3 00         [10]  654 	ld	hl, #0x00b3
      000475 09               [11]  655 	add	hl, bc
      000476 36 2E            [10]  656 	ld	(hl), #0x2e
      000478 21 B4 00         [10]  657 	ld	hl, #0x00b4
      00047B 09               [11]  658 	add	hl, bc
      00047C 36 20            [10]  659 	ld	(hl), #0x20
      00047E 21 B5 00         [10]  660 	ld	hl, #0x00b5
      000481 09               [11]  661 	add	hl, bc
      000482 36 20            [10]  662 	ld	(hl), #0x20
      000484 21 B6 00         [10]  663 	ld	hl, #0x00b6
      000487 09               [11]  664 	add	hl, bc
      000488 36 2E            [10]  665 	ld	(hl), #0x2e
      00048A 21 B7 00         [10]  666 	ld	hl, #0x00b7
      00048D 09               [11]  667 	add	hl, bc
      00048E 36 2E            [10]  668 	ld	(hl), #0x2e
      000490 21 B8 00         [10]  669 	ld	hl, #0x00b8
      000493 09               [11]  670 	add	hl, bc
      000494 36 2E            [10]  671 	ld	(hl), #0x2e
      000496 21 B9 00         [10]  672 	ld	hl, #0x00b9
      000499 09               [11]  673 	add	hl, bc
      00049A 36 20            [10]  674 	ld	(hl), #0x20
      00049C 21 BA 00         [10]  675 	ld	hl, #0x00ba
      00049F 09               [11]  676 	add	hl, bc
      0004A0 36 2E            [10]  677 	ld	(hl), #0x2e
      0004A2 21 BB 00         [10]  678 	ld	hl, #0x00bb
      0004A5 09               [11]  679 	add	hl, bc
      0004A6 36 3A            [10]  680 	ld	(hl), #0x3a
      0004A8 21 BC 00         [10]  681 	ld	hl, #0x00bc
      0004AB 09               [11]  682 	add	hl, bc
      0004AC 36 2D            [10]  683 	ld	(hl), #0x2d
      0004AE 21 BD 00         [10]  684 	ld	hl, #0x00bd
      0004B1 09               [11]  685 	add	hl, bc
      0004B2 36 2E            [10]  686 	ld	(hl), #0x2e
      0004B4 21 BE 00         [10]  687 	ld	hl, #0x00be
      0004B7 09               [11]  688 	add	hl, bc
      0004B8 36 20            [10]  689 	ld	(hl), #0x20
      0004BA 21 BF 00         [10]  690 	ld	hl, #0x00bf
      0004BD 09               [11]  691 	add	hl, bc
      0004BE 36 20            [10]  692 	ld	(hl), #0x20
      0004C0 21 C0 00         [10]  693 	ld	hl, #0x00c0
      0004C3 09               [11]  694 	add	hl, bc
      0004C4 36 20            [10]  695 	ld	(hl), #0x20
      0004C6 21 C1 00         [10]  696 	ld	hl, #0x00c1
      0004C9 09               [11]  697 	add	hl, bc
      0004CA 36 20            [10]  698 	ld	(hl), #0x20
      0004CC 21 C2 00         [10]  699 	ld	hl, #0x00c2
      0004CF 09               [11]  700 	add	hl, bc
      0004D0 36 20            [10]  701 	ld	(hl), #0x20
      0004D2 21 C3 00         [10]  702 	ld	hl, #0x00c3
      0004D5 09               [11]  703 	add	hl, bc
      0004D6 36 20            [10]  704 	ld	(hl), #0x20
      0004D8 21 C4 00         [10]  705 	ld	hl, #0x00c4
      0004DB 09               [11]  706 	add	hl, bc
      0004DC 36 2E            [10]  707 	ld	(hl), #0x2e
      0004DE 21 C5 00         [10]  708 	ld	hl, #0x00c5
      0004E1 09               [11]  709 	add	hl, bc
      0004E2 36 2D            [10]  710 	ld	(hl), #0x2d
      0004E4 21 C6 00         [10]  711 	ld	hl, #0x00c6
      0004E7 09               [11]  712 	add	hl, bc
      0004E8 36 2D            [10]  713 	ld	(hl), #0x2d
      0004EA 21 C7 00         [10]  714 	ld	hl, #0x00c7
      0004ED 09               [11]  715 	add	hl, bc
      0004EE 36 2D            [10]  716 	ld	(hl), #0x2d
      0004F0 21 C8 00         [10]  717 	ld	hl, #0x00c8
      0004F3 09               [11]  718 	add	hl, bc
      0004F4 36 2E            [10]  719 	ld	(hl), #0x2e
      0004F6 21 C9 00         [10]  720 	ld	hl, #0x00c9
      0004F9 09               [11]  721 	add	hl, bc
      0004FA 36 20            [10]  722 	ld	(hl), #0x20
      0004FC 21 CA 00         [10]  723 	ld	hl, #0x00ca
      0004FF 09               [11]  724 	add	hl, bc
      000500 36 20            [10]  725 	ld	(hl), #0x20
      000502 21 CB 00         [10]  726 	ld	hl, #0x00cb
      000505 09               [11]  727 	add	hl, bc
      000506 36 20            [10]  728 	ld	(hl), #0x20
      000508 21 CC 00         [10]  729 	ld	hl, #0x00cc
      00050B 09               [11]  730 	add	hl, bc
      00050C 36 0A            [10]  731 	ld	(hl), #0x0a
      00050E 21 CD 00         [10]  732 	ld	hl, #0x00cd
      000511 09               [11]  733 	add	hl, bc
      000512 36 20            [10]  734 	ld	(hl), #0x20
      000514 21 CE 00         [10]  735 	ld	hl, #0x00ce
      000517 09               [11]  736 	add	hl, bc
      000518 36 20            [10]  737 	ld	(hl), #0x20
      00051A 21 CF 00         [10]  738 	ld	hl, #0x00cf
      00051D 09               [11]  739 	add	hl, bc
      00051E 36 20            [10]  740 	ld	(hl), #0x20
      000520 21 D0 00         [10]  741 	ld	hl, #0x00d0
      000523 09               [11]  742 	add	hl, bc
      000524 36 20            [10]  743 	ld	(hl), #0x20
      000526 21 D1 00         [10]  744 	ld	hl, #0x00d1
      000529 09               [11]  745 	add	hl, bc
      00052A 36 20            [10]  746 	ld	(hl), #0x20
      00052C 21 D2 00         [10]  747 	ld	hl, #0x00d2
      00052F 09               [11]  748 	add	hl, bc
      000530 36 3A            [10]  749 	ld	(hl), #0x3a
      000532 21 D3 00         [10]  750 	ld	hl, #0x00d3
      000535 09               [11]  751 	add	hl, bc
      000536 36 2D            [10]  752 	ld	(hl), #0x2d
      000538 21 D4 00         [10]  753 	ld	hl, #0x00d4
      00053B 09               [11]  754 	add	hl, bc
      00053C 36 2D            [10]  755 	ld	(hl), #0x2d
      00053E 21 D5 00         [10]  756 	ld	hl, #0x00d5
      000541 09               [11]  757 	add	hl, bc
      000542 36 2D            [10]  758 	ld	(hl), #0x2d
      000544 21 D6 00         [10]  759 	ld	hl, #0x00d6
      000547 09               [11]  760 	add	hl, bc
      000548 36 2E            [10]  761 	ld	(hl), #0x2e
      00054A 21 D7 00         [10]  762 	ld	hl, #0x00d7
      00054D 09               [11]  763 	add	hl, bc
      00054E 36 20            [10]  764 	ld	(hl), #0x20
      000550 21 D8 00         [10]  765 	ld	hl, #0x00d8
      000553 09               [11]  766 	add	hl, bc
      000554 36 20            [10]  767 	ld	(hl), #0x20
      000556 21 D9 00         [10]  768 	ld	hl, #0x00d9
      000559 09               [11]  769 	add	hl, bc
      00055A 36 20            [10]  770 	ld	(hl), #0x20
      00055C 21 DA 00         [10]  771 	ld	hl, #0x00da
      00055F 09               [11]  772 	add	hl, bc
      000560 36 20            [10]  773 	ld	(hl), #0x20
      000562 21 DB 00         [10]  774 	ld	hl, #0x00db
      000565 09               [11]  775 	add	hl, bc
      000566 36 20            [10]  776 	ld	(hl), #0x20
      000568 21 DC 00         [10]  777 	ld	hl, #0x00dc
      00056B 09               [11]  778 	add	hl, bc
      00056C 36 2E            [10]  779 	ld	(hl), #0x2e
      00056E 21 DD 00         [10]  780 	ld	hl, #0x00dd
      000571 09               [11]  781 	add	hl, bc
      000572 36 2E            [10]  782 	ld	(hl), #0x2e
      000574 21 DE 00         [10]  783 	ld	hl, #0x00de
      000577 09               [11]  784 	add	hl, bc
      000578 36 2E            [10]  785 	ld	(hl), #0x2e
      00057A 21 DF 00         [10]  786 	ld	hl, #0x00df
      00057D 09               [11]  787 	add	hl, bc
      00057E 36 20            [10]  788 	ld	(hl), #0x20
      000580 21 E0 00         [10]  789 	ld	hl, #0x00e0
      000583 09               [11]  790 	add	hl, bc
      000584 36 20            [10]  791 	ld	(hl), #0x20
      000586 21 E1 00         [10]  792 	ld	hl, #0x00e1
      000589 09               [11]  793 	add	hl, bc
      00058A 36 20            [10]  794 	ld	(hl), #0x20
      00058C 21 E2 00         [10]  795 	ld	hl, #0x00e2
      00058F 09               [11]  796 	add	hl, bc
      000590 36 2E            [10]  797 	ld	(hl), #0x2e
      000592 21 E3 00         [10]  798 	ld	hl, #0x00e3
      000595 09               [11]  799 	add	hl, bc
      000596 36 3A            [10]  800 	ld	(hl), #0x3a
      000598 21 E4 00         [10]  801 	ld	hl, #0x00e4
      00059B 09               [11]  802 	add	hl, bc
      00059C 36 2E            [10]  803 	ld	(hl), #0x2e
      00059E 21 E5 00         [10]  804 	ld	hl, #0x00e5
      0005A1 09               [11]  805 	add	hl, bc
      0005A2 36 20            [10]  806 	ld	(hl), #0x20
      0005A4 21 E6 00         [10]  807 	ld	hl, #0x00e6
      0005A7 09               [11]  808 	add	hl, bc
      0005A8 36 20            [10]  809 	ld	(hl), #0x20
      0005AA 21 E7 00         [10]  810 	ld	hl, #0x00e7
      0005AD 09               [11]  811 	add	hl, bc
      0005AE 36 20            [10]  812 	ld	(hl), #0x20
      0005B0 21 E8 00         [10]  813 	ld	hl, #0x00e8
      0005B3 09               [11]  814 	add	hl, bc
      0005B4 36 20            [10]  815 	ld	(hl), #0x20
      0005B6 21 E9 00         [10]  816 	ld	hl, #0x00e9
      0005B9 09               [11]  817 	add	hl, bc
      0005BA 36 20            [10]  818 	ld	(hl), #0x20
      0005BC 21 EA 00         [10]  819 	ld	hl, #0x00ea
      0005BF 09               [11]  820 	add	hl, bc
      0005C0 36 20            [10]  821 	ld	(hl), #0x20
      0005C2 21 EB 00         [10]  822 	ld	hl, #0x00eb
      0005C5 09               [11]  823 	add	hl, bc
      0005C6 36 2E            [10]  824 	ld	(hl), #0x2e
      0005C8 21 EC 00         [10]  825 	ld	hl, #0x00ec
      0005CB 09               [11]  826 	add	hl, bc
      0005CC 36 2D            [10]  827 	ld	(hl), #0x2d
      0005CE 21 ED 00         [10]  828 	ld	hl, #0x00ed
      0005D1 09               [11]  829 	add	hl, bc
      0005D2 36 2D            [10]  830 	ld	(hl), #0x2d
      0005D4 21 EE 00         [10]  831 	ld	hl, #0x00ee
      0005D7 09               [11]  832 	add	hl, bc
      0005D8 36 2D            [10]  833 	ld	(hl), #0x2d
      0005DA 21 EF 00         [10]  834 	ld	hl, #0x00ef
      0005DD 09               [11]  835 	add	hl, bc
      0005DE 36 2E            [10]  836 	ld	(hl), #0x2e
      0005E0 21 F0 00         [10]  837 	ld	hl, #0x00f0
      0005E3 09               [11]  838 	add	hl, bc
      0005E4 36 20            [10]  839 	ld	(hl), #0x20
      0005E6 21 F1 00         [10]  840 	ld	hl, #0x00f1
      0005E9 09               [11]  841 	add	hl, bc
      0005EA 36 20            [10]  842 	ld	(hl), #0x20
      0005EC 21 F2 00         [10]  843 	ld	hl, #0x00f2
      0005EF 09               [11]  844 	add	hl, bc
      0005F0 36 20            [10]  845 	ld	(hl), #0x20
      0005F2 21 F3 00         [10]  846 	ld	hl, #0x00f3
      0005F5 09               [11]  847 	add	hl, bc
      0005F6 36 20            [10]  848 	ld	(hl), #0x20
      0005F8 21 F4 00         [10]  849 	ld	hl, #0x00f4
      0005FB 09               [11]  850 	add	hl, bc
      0005FC 36 20            [10]  851 	ld	(hl), #0x20
      0005FE 21 F5 00         [10]  852 	ld	hl, #0x00f5
      000601 09               [11]  853 	add	hl, bc
      000602 36 0A            [10]  854 	ld	(hl), #0x0a
      000604 21 F6 00         [10]  855 	ld	hl, #0x00f6
      000607 09               [11]  856 	add	hl, bc
      000608 36 20            [10]  857 	ld	(hl), #0x20
      00060A 21 F7 00         [10]  858 	ld	hl, #0x00f7
      00060D 09               [11]  859 	add	hl, bc
      00060E 36 20            [10]  860 	ld	(hl), #0x20
      000610 21 F8 00         [10]  861 	ld	hl, #0x00f8
      000613 09               [11]  862 	add	hl, bc
      000614 36 20            [10]  863 	ld	(hl), #0x20
      000616 21 F9 00         [10]  864 	ld	hl, #0x00f9
      000619 09               [11]  865 	add	hl, bc
      00061A 36 20            [10]  866 	ld	(hl), #0x20
      00061C 21 FA 00         [10]  867 	ld	hl, #0x00fa
      00061F 09               [11]  868 	add	hl, bc
      000620 36 20            [10]  869 	ld	(hl), #0x20
      000622 21 FB 00         [10]  870 	ld	hl, #0x00fb
      000625 09               [11]  871 	add	hl, bc
      000626 36 20            [10]  872 	ld	(hl), #0x20
      000628 21 FC 00         [10]  873 	ld	hl, #0x00fc
      00062B 09               [11]  874 	add	hl, bc
      00062C 36 20            [10]  875 	ld	(hl), #0x20
      00062E 21 FD 00         [10]  876 	ld	hl, #0x00fd
      000631 09               [11]  877 	add	hl, bc
      000632 36 3A            [10]  878 	ld	(hl), #0x3a
      000634 21 FE 00         [10]  879 	ld	hl, #0x00fe
      000637 09               [11]  880 	add	hl, bc
      000638 36 2D            [10]  881 	ld	(hl), #0x2d
      00063A 21 FF 00         [10]  882 	ld	hl, #0x00ff
      00063D 09               [11]  883 	add	hl, bc
      00063E 36 2D            [10]  884 	ld	(hl), #0x2d
      000640 21 00 01         [10]  885 	ld	hl, #0x0100
      000643 09               [11]  886 	add	hl, bc
      000644 36 2D            [10]  887 	ld	(hl), #0x2d
      000646 21 01 01         [10]  888 	ld	hl, #0x0101
      000649 09               [11]  889 	add	hl, bc
      00064A 36 3A            [10]  890 	ld	(hl), #0x3a
      00064C 21 02 01         [10]  891 	ld	hl, #0x0102
      00064F 09               [11]  892 	add	hl, bc
      000650 36 20            [10]  893 	ld	(hl), #0x20
      000652 21 03 01         [10]  894 	ld	hl, #0x0103
      000655 09               [11]  895 	add	hl, bc
      000656 36 20            [10]  896 	ld	(hl), #0x20
      000658 21 04 01         [10]  897 	ld	hl, #0x0104
      00065B 09               [11]  898 	add	hl, bc
      00065C 36 20            [10]  899 	ld	(hl), #0x20
      00065E 21 05 01         [10]  900 	ld	hl, #0x0105
      000661 09               [11]  901 	add	hl, bc
      000662 36 2E            [10]  902 	ld	(hl), #0x2e
      000664 21 06 01         [10]  903 	ld	hl, #0x0106
      000667 09               [11]  904 	add	hl, bc
      000668 36 3A            [10]  905 	ld	(hl), #0x3a
      00066A 21 07 01         [10]  906 	ld	hl, #0x0107
      00066D 09               [11]  907 	add	hl, bc
      00066E 36 2E            [10]  908 	ld	(hl), #0x2e
      000670 21 08 01         [10]  909 	ld	hl, #0x0108
      000673 09               [11]  910 	add	hl, bc
      000674 36 20            [10]  911 	ld	(hl), #0x20
      000676 21 09 01         [10]  912 	ld	hl, #0x0109
      000679 09               [11]  913 	add	hl, bc
      00067A 36 2E            [10]  914 	ld	(hl), #0x2e
      00067C 21 0A 01         [10]  915 	ld	hl, #0x010a
      00067F 09               [11]  916 	add	hl, bc
      000680 36 3A            [10]  917 	ld	(hl), #0x3a
      000682 21 0B 01         [10]  918 	ld	hl, #0x010b
      000685 09               [11]  919 	add	hl, bc
      000686 36 2E            [10]  920 	ld	(hl), #0x2e
      000688 21 0C 01         [10]  921 	ld	hl, #0x010c
      00068B 09               [11]  922 	add	hl, bc
      00068C 36 20            [10]  923 	ld	(hl), #0x20
      00068E 21 0D 01         [10]  924 	ld	hl, #0x010d
      000691 09               [11]  925 	add	hl, bc
      000692 36 20            [10]  926 	ld	(hl), #0x20
      000694 21 0E 01         [10]  927 	ld	hl, #0x010e
      000697 09               [11]  928 	add	hl, bc
      000698 36 20            [10]  929 	ld	(hl), #0x20
      00069A 21 0F 01         [10]  930 	ld	hl, #0x010f
      00069D 09               [11]  931 	add	hl, bc
      00069E 36 20            [10]  932 	ld	(hl), #0x20
      0006A0 21 10 01         [10]  933 	ld	hl, #0x0110
      0006A3 09               [11]  934 	add	hl, bc
      0006A4 36 20            [10]  935 	ld	(hl), #0x20
      0006A6 21 11 01         [10]  936 	ld	hl, #0x0111
      0006A9 09               [11]  937 	add	hl, bc
      0006AA 36 20            [10]  938 	ld	(hl), #0x20
      0006AC 21 12 01         [10]  939 	ld	hl, #0x0112
      0006AF 09               [11]  940 	add	hl, bc
      0006B0 36 2E            [10]  941 	ld	(hl), #0x2e
      0006B2 21 13 01         [10]  942 	ld	hl, #0x0113
      0006B5 09               [11]  943 	add	hl, bc
      0006B6 36 2D            [10]  944 	ld	(hl), #0x2d
      0006B8 21 14 01         [10]  945 	ld	hl, #0x0114
      0006BB 09               [11]  946 	add	hl, bc
      0006BC 36 2D            [10]  947 	ld	(hl), #0x2d
      0006BE 21 15 01         [10]  948 	ld	hl, #0x0115
      0006C1 09               [11]  949 	add	hl, bc
      0006C2 36 2D            [10]  950 	ld	(hl), #0x2d
      0006C4 21 16 01         [10]  951 	ld	hl, #0x0116
      0006C7 09               [11]  952 	add	hl, bc
      0006C8 36 2E            [10]  953 	ld	(hl), #0x2e
      0006CA 21 17 01         [10]  954 	ld	hl, #0x0117
      0006CD 09               [11]  955 	add	hl, bc
      0006CE 36 20            [10]  956 	ld	(hl), #0x20
      0006D0 21 18 01         [10]  957 	ld	hl, #0x0118
      0006D3 09               [11]  958 	add	hl, bc
      0006D4 36 20            [10]  959 	ld	(hl), #0x20
      0006D6 21 19 01         [10]  960 	ld	hl, #0x0119
      0006D9 09               [11]  961 	add	hl, bc
      0006DA 36 20            [10]  962 	ld	(hl), #0x20
      0006DC 21 1A 01         [10]  963 	ld	hl, #0x011a
      0006DF 09               [11]  964 	add	hl, bc
      0006E0 36 20            [10]  965 	ld	(hl), #0x20
      0006E2 21 1B 01         [10]  966 	ld	hl, #0x011b
      0006E5 09               [11]  967 	add	hl, bc
      0006E6 36 20            [10]  968 	ld	(hl), #0x20
      0006E8 21 1C 01         [10]  969 	ld	hl, #0x011c
      0006EB 09               [11]  970 	add	hl, bc
      0006EC 36 20            [10]  971 	ld	(hl), #0x20
      0006EE 21 1D 01         [10]  972 	ld	hl, #0x011d
      0006F1 09               [11]  973 	add	hl, bc
      0006F2 36 20            [10]  974 	ld	(hl), #0x20
      0006F4 21 1E 01         [10]  975 	ld	hl, #0x011e
      0006F7 09               [11]  976 	add	hl, bc
      0006F8 36 0A            [10]  977 	ld	(hl), #0x0a
      0006FA 21 1F 01         [10]  978 	ld	hl, #0x011f
      0006FD 09               [11]  979 	add	hl, bc
      0006FE 36 20            [10]  980 	ld	(hl), #0x20
      000700 21 20 01         [10]  981 	ld	hl, #0x0120
      000703 09               [11]  982 	add	hl, bc
      000704 36 20            [10]  983 	ld	(hl), #0x20
      000706 21 21 01         [10]  984 	ld	hl, #0x0121
      000709 09               [11]  985 	add	hl, bc
      00070A 36 20            [10]  986 	ld	(hl), #0x20
      00070C 21 22 01         [10]  987 	ld	hl, #0x0122
      00070F 09               [11]  988 	add	hl, bc
      000710 36 20            [10]  989 	ld	(hl), #0x20
      000712 21 23 01         [10]  990 	ld	hl, #0x0123
      000715 09               [11]  991 	add	hl, bc
      000716 36 20            [10]  992 	ld	(hl), #0x20
      000718 21 24 01         [10]  993 	ld	hl, #0x0124
      00071B 09               [11]  994 	add	hl, bc
      00071C 36 20            [10]  995 	ld	(hl), #0x20
      00071E 21 25 01         [10]  996 	ld	hl, #0x0125
      000721 09               [11]  997 	add	hl, bc
      000722 36 20            [10]  998 	ld	(hl), #0x20
      000724 21 26 01         [10]  999 	ld	hl, #0x0126
      000727 09               [11] 1000 	add	hl, bc
      000728 36 20            [10] 1001 	ld	(hl), #0x20
      00072A 21 27 01         [10] 1002 	ld	hl, #0x0127
      00072D 09               [11] 1003 	add	hl, bc
      00072E 36 20            [10] 1004 	ld	(hl), #0x20
      000730 21 28 01         [10] 1005 	ld	hl, #0x0128
      000733 09               [11] 1006 	add	hl, bc
      000734 36 3A            [10] 1007 	ld	(hl), #0x3a
      000736 21 29 01         [10] 1008 	ld	hl, #0x0129
      000739 09               [11] 1009 	add	hl, bc
      00073A 36 3A            [10] 1010 	ld	(hl), #0x3a
      00073C 21 2A 01         [10] 1011 	ld	hl, #0x012a
      00073F 09               [11] 1012 	add	hl, bc
      000740 36 2E            [10] 1013 	ld	(hl), #0x2e
      000742 21 2B 01         [10] 1014 	ld	hl, #0x012b
      000745 09               [11] 1015 	add	hl, bc
      000746 36 20            [10] 1016 	ld	(hl), #0x20
      000748 21 2C 01         [10] 1017 	ld	hl, #0x012c
      00074B 09               [11] 1018 	add	hl, bc
      00074C 36 2E            [10] 1019 	ld	(hl), #0x2e
      00074E 21 2D 01         [10] 1020 	ld	hl, #0x012d
      000751 09               [11] 1021 	add	hl, bc
      000752 36 3A            [10] 1022 	ld	(hl), #0x3a
      000754 21 2E 01         [10] 1023 	ld	hl, #0x012e
      000757 09               [11] 1024 	add	hl, bc
      000758 36 2E            [10] 1025 	ld	(hl), #0x2e
      00075A 21 2F 01         [10] 1026 	ld	hl, #0x012f
      00075D 09               [11] 1027 	add	hl, bc
      00075E 36 20            [10] 1028 	ld	(hl), #0x20
      000760 21 30 01         [10] 1029 	ld	hl, #0x0130
      000763 09               [11] 1030 	add	hl, bc
      000764 36 2E            [10] 1031 	ld	(hl), #0x2e
      000766 21 31 01         [10] 1032 	ld	hl, #0x0131
      000769 09               [11] 1033 	add	hl, bc
      00076A 36 3A            [10] 1034 	ld	(hl), #0x3a
      00076C 21 32 01         [10] 1035 	ld	hl, #0x0132
      00076F 09               [11] 1036 	add	hl, bc
      000770 36 2E            [10] 1037 	ld	(hl), #0x2e
      000772 21 33 01         [10] 1038 	ld	hl, #0x0133
      000775 09               [11] 1039 	add	hl, bc
      000776 36 20            [10] 1040 	ld	(hl), #0x20
      000778 21 34 01         [10] 1041 	ld	hl, #0x0134
      00077B 09               [11] 1042 	add	hl, bc
      00077C 36 20            [10] 1043 	ld	(hl), #0x20
      00077E 21 35 01         [10] 1044 	ld	hl, #0x0135
      000781 09               [11] 1045 	add	hl, bc
      000782 36 20            [10] 1046 	ld	(hl), #0x20
      000784 21 36 01         [10] 1047 	ld	hl, #0x0136
      000787 09               [11] 1048 	add	hl, bc
      000788 36 20            [10] 1049 	ld	(hl), #0x20
      00078A 21 37 01         [10] 1050 	ld	hl, #0x0137
      00078D 09               [11] 1051 	add	hl, bc
      00078E 36 20            [10] 1052 	ld	(hl), #0x20
      000790 21 38 01         [10] 1053 	ld	hl, #0x0138
      000793 09               [11] 1054 	add	hl, bc
      000794 36 20            [10] 1055 	ld	(hl), #0x20
      000796 21 39 01         [10] 1056 	ld	hl, #0x0139
      000799 09               [11] 1057 	add	hl, bc
      00079A 36 2E            [10] 1058 	ld	(hl), #0x2e
      00079C 21 3A 01         [10] 1059 	ld	hl, #0x013a
      00079F 09               [11] 1060 	add	hl, bc
      0007A0 36 2D            [10] 1061 	ld	(hl), #0x2d
      0007A2 21 3B 01         [10] 1062 	ld	hl, #0x013b
      0007A5 09               [11] 1063 	add	hl, bc
      0007A6 36 2D            [10] 1064 	ld	(hl), #0x2d
      0007A8 21 3C 01         [10] 1065 	ld	hl, #0x013c
      0007AB 09               [11] 1066 	add	hl, bc
      0007AC 36 2D            [10] 1067 	ld	(hl), #0x2d
      0007AE 21 3D 01         [10] 1068 	ld	hl, #0x013d
      0007B1 09               [11] 1069 	add	hl, bc
      0007B2 36 2E            [10] 1070 	ld	(hl), #0x2e
      0007B4 21 3E 01         [10] 1071 	ld	hl, #0x013e
      0007B7 09               [11] 1072 	add	hl, bc
      0007B8 36 20            [10] 1073 	ld	(hl), #0x20
      0007BA 21 3F 01         [10] 1074 	ld	hl, #0x013f
      0007BD 09               [11] 1075 	add	hl, bc
      0007BE 36 20            [10] 1076 	ld	(hl), #0x20
      0007C0 21 40 01         [10] 1077 	ld	hl, #0x0140
      0007C3 09               [11] 1078 	add	hl, bc
      0007C4 36 20            [10] 1079 	ld	(hl), #0x20
      0007C6 21 41 01         [10] 1080 	ld	hl, #0x0141
      0007C9 09               [11] 1081 	add	hl, bc
      0007CA 36 20            [10] 1082 	ld	(hl), #0x20
      0007CC 21 42 01         [10] 1083 	ld	hl, #0x0142
      0007CF 09               [11] 1084 	add	hl, bc
      0007D0 36 20            [10] 1085 	ld	(hl), #0x20
      0007D2 21 43 01         [10] 1086 	ld	hl, #0x0143
      0007D5 09               [11] 1087 	add	hl, bc
      0007D6 36 20            [10] 1088 	ld	(hl), #0x20
      0007D8 21 44 01         [10] 1089 	ld	hl, #0x0144
      0007DB 09               [11] 1090 	add	hl, bc
      0007DC 36 20            [10] 1091 	ld	(hl), #0x20
      0007DE 21 45 01         [10] 1092 	ld	hl, #0x0145
      0007E1 09               [11] 1093 	add	hl, bc
      0007E2 36 20            [10] 1094 	ld	(hl), #0x20
      0007E4 21 46 01         [10] 1095 	ld	hl, #0x0146
      0007E7 09               [11] 1096 	add	hl, bc
      0007E8 36 20            [10] 1097 	ld	(hl), #0x20
      0007EA 21 47 01         [10] 1098 	ld	hl, #0x0147
      0007ED 09               [11] 1099 	add	hl, bc
      0007EE 36 0A            [10] 1100 	ld	(hl), #0x0a
      0007F0 21 48 01         [10] 1101 	ld	hl, #0x0148
      0007F3 09               [11] 1102 	add	hl, bc
      0007F4 36 20            [10] 1103 	ld	(hl), #0x20
      0007F6 21 49 01         [10] 1104 	ld	hl, #0x0149
      0007F9 09               [11] 1105 	add	hl, bc
      0007FA 36 20            [10] 1106 	ld	(hl), #0x20
      0007FC 21 4A 01         [10] 1107 	ld	hl, #0x014a
      0007FF 09               [11] 1108 	add	hl, bc
      000800 36 20            [10] 1109 	ld	(hl), #0x20
      000802 21 4B 01         [10] 1110 	ld	hl, #0x014b
      000805 09               [11] 1111 	add	hl, bc
      000806 36 20            [10] 1112 	ld	(hl), #0x20
      000808 21 4C 01         [10] 1113 	ld	hl, #0x014c
      00080B 09               [11] 1114 	add	hl, bc
      00080C 36 20            [10] 1115 	ld	(hl), #0x20
      00080E 21 4D 01         [10] 1116 	ld	hl, #0x014d
      000811 09               [11] 1117 	add	hl, bc
      000812 36 20            [10] 1118 	ld	(hl), #0x20
      000814 21 4E 01         [10] 1119 	ld	hl, #0x014e
      000817 09               [11] 1120 	add	hl, bc
      000818 36 20            [10] 1121 	ld	(hl), #0x20
      00081A 21 4F 01         [10] 1122 	ld	hl, #0x014f
      00081D 09               [11] 1123 	add	hl, bc
      00081E 36 20            [10] 1124 	ld	(hl), #0x20
      000820 21 50 01         [10] 1125 	ld	hl, #0x0150
      000823 09               [11] 1126 	add	hl, bc
      000824 36 20            [10] 1127 	ld	(hl), #0x20
      000826 21 51 01         [10] 1128 	ld	hl, #0x0151
      000829 09               [11] 1129 	add	hl, bc
      00082A 36 20            [10] 1130 	ld	(hl), #0x20
      00082C 21 52 01         [10] 1131 	ld	hl, #0x0152
      00082F 09               [11] 1132 	add	hl, bc
      000830 36 20            [10] 1133 	ld	(hl), #0x20
      000832 21 53 01         [10] 1134 	ld	hl, #0x0153
      000835 09               [11] 1135 	add	hl, bc
      000836 36 2E            [10] 1136 	ld	(hl), #0x2e
      000838 21 54 01         [10] 1137 	ld	hl, #0x0154
      00083B 09               [11] 1138 	add	hl, bc
      00083C 36 3A            [10] 1139 	ld	(hl), #0x3a
      00083E 21 55 01         [10] 1140 	ld	hl, #0x0155
      000841 09               [11] 1141 	add	hl, bc
      000842 36 2E            [10] 1142 	ld	(hl), #0x2e
      000844 21 56 01         [10] 1143 	ld	hl, #0x0156
      000847 09               [11] 1144 	add	hl, bc
      000848 36 20            [10] 1145 	ld	(hl), #0x20
      00084A 21 57 01         [10] 1146 	ld	hl, #0x0157
      00084D 09               [11] 1147 	add	hl, bc
      00084E 36 2E            [10] 1148 	ld	(hl), #0x2e
      000850 21 58 01         [10] 1149 	ld	hl, #0x0158
      000853 09               [11] 1150 	add	hl, bc
      000854 36 3A            [10] 1151 	ld	(hl), #0x3a
      000856 21 59 01         [10] 1152 	ld	hl, #0x0159
      000859 09               [11] 1153 	add	hl, bc
      00085A 36 2E            [10] 1154 	ld	(hl), #0x2e
      00085C 21 5A 01         [10] 1155 	ld	hl, #0x015a
      00085F 09               [11] 1156 	add	hl, bc
      000860 36 20            [10] 1157 	ld	(hl), #0x20
      000862 21 5B 01         [10] 1158 	ld	hl, #0x015b
      000865 09               [11] 1159 	add	hl, bc
      000866 36 20            [10] 1160 	ld	(hl), #0x20
      000868 21 5C 01         [10] 1161 	ld	hl, #0x015c
      00086B 09               [11] 1162 	add	hl, bc
      00086C 36 20            [10] 1163 	ld	(hl), #0x20
      00086E 21 5D 01         [10] 1164 	ld	hl, #0x015d
      000871 09               [11] 1165 	add	hl, bc
      000872 36 20            [10] 1166 	ld	(hl), #0x20
      000874 21 5E 01         [10] 1167 	ld	hl, #0x015e
      000877 09               [11] 1168 	add	hl, bc
      000878 36 20            [10] 1169 	ld	(hl), #0x20
      00087A 21 5F 01         [10] 1170 	ld	hl, #0x015f
      00087D 09               [11] 1171 	add	hl, bc
      00087E 36 20            [10] 1172 	ld	(hl), #0x20
      000880 21 60 01         [10] 1173 	ld	hl, #0x0160
      000883 09               [11] 1174 	add	hl, bc
      000884 36 2E            [10] 1175 	ld	(hl), #0x2e
      000886 21 61 01         [10] 1176 	ld	hl, #0x0161
      000889 09               [11] 1177 	add	hl, bc
      00088A 36 2D            [10] 1178 	ld	(hl), #0x2d
      00088C 21 62 01         [10] 1179 	ld	hl, #0x0162
      00088F 09               [11] 1180 	add	hl, bc
      000890 36 2D            [10] 1181 	ld	(hl), #0x2d
      000892 21 63 01         [10] 1182 	ld	hl, #0x0163
      000895 09               [11] 1183 	add	hl, bc
      000896 36 2D            [10] 1184 	ld	(hl), #0x2d
      000898 21 64 01         [10] 1185 	ld	hl, #0x0164
      00089B 09               [11] 1186 	add	hl, bc
      00089C 36 2E            [10] 1187 	ld	(hl), #0x2e
      00089E 21 65 01         [10] 1188 	ld	hl, #0x0165
      0008A1 09               [11] 1189 	add	hl, bc
      0008A2 36 20            [10] 1190 	ld	(hl), #0x20
      0008A4 21 66 01         [10] 1191 	ld	hl, #0x0166
      0008A7 09               [11] 1192 	add	hl, bc
      0008A8 36 20            [10] 1193 	ld	(hl), #0x20
      0008AA 21 67 01         [10] 1194 	ld	hl, #0x0167
      0008AD 09               [11] 1195 	add	hl, bc
      0008AE 36 20            [10] 1196 	ld	(hl), #0x20
      0008B0 21 68 01         [10] 1197 	ld	hl, #0x0168
      0008B3 09               [11] 1198 	add	hl, bc
      0008B4 36 20            [10] 1199 	ld	(hl), #0x20
      0008B6 21 69 01         [10] 1200 	ld	hl, #0x0169
      0008B9 09               [11] 1201 	add	hl, bc
      0008BA 36 20            [10] 1202 	ld	(hl), #0x20
      0008BC 21 6A 01         [10] 1203 	ld	hl, #0x016a
      0008BF 09               [11] 1204 	add	hl, bc
      0008C0 36 20            [10] 1205 	ld	(hl), #0x20
      0008C2 21 6B 01         [10] 1206 	ld	hl, #0x016b
      0008C5 09               [11] 1207 	add	hl, bc
      0008C6 36 20            [10] 1208 	ld	(hl), #0x20
      0008C8 21 6C 01         [10] 1209 	ld	hl, #0x016c
      0008CB 09               [11] 1210 	add	hl, bc
      0008CC 36 20            [10] 1211 	ld	(hl), #0x20
      0008CE 21 6D 01         [10] 1212 	ld	hl, #0x016d
      0008D1 09               [11] 1213 	add	hl, bc
      0008D2 36 20            [10] 1214 	ld	(hl), #0x20
      0008D4 21 6E 01         [10] 1215 	ld	hl, #0x016e
      0008D7 09               [11] 1216 	add	hl, bc
      0008D8 36 20            [10] 1217 	ld	(hl), #0x20
      0008DA 21 6F 01         [10] 1218 	ld	hl, #0x016f
      0008DD 09               [11] 1219 	add	hl, bc
      0008DE 36 20            [10] 1220 	ld	(hl), #0x20
      0008E0 21 70 01         [10] 1221 	ld	hl, #0x0170
      0008E3 09               [11] 1222 	add	hl, bc
      0008E4 36 0A            [10] 1223 	ld	(hl), #0x0a
      0008E6 21 71 01         [10] 1224 	ld	hl, #0x0171
      0008E9 09               [11] 1225 	add	hl, bc
      0008EA 36 20            [10] 1226 	ld	(hl), #0x20
      0008EC 21 72 01         [10] 1227 	ld	hl, #0x0172
      0008EF 09               [11] 1228 	add	hl, bc
      0008F0 36 20            [10] 1229 	ld	(hl), #0x20
      0008F2 21 73 01         [10] 1230 	ld	hl, #0x0173
      0008F5 09               [11] 1231 	add	hl, bc
      0008F6 36 20            [10] 1232 	ld	(hl), #0x20
      0008F8 21 74 01         [10] 1233 	ld	hl, #0x0174
      0008FB 09               [11] 1234 	add	hl, bc
      0008FC 36 20            [10] 1235 	ld	(hl), #0x20
      0008FE 21 75 01         [10] 1236 	ld	hl, #0x0175
      000901 09               [11] 1237 	add	hl, bc
      000902 36 20            [10] 1238 	ld	(hl), #0x20
      000904 21 76 01         [10] 1239 	ld	hl, #0x0176
      000907 09               [11] 1240 	add	hl, bc
      000908 36 20            [10] 1241 	ld	(hl), #0x20
      00090A 21 77 01         [10] 1242 	ld	hl, #0x0177
      00090D 09               [11] 1243 	add	hl, bc
      00090E 36 20            [10] 1244 	ld	(hl), #0x20
      000910 21 78 01         [10] 1245 	ld	hl, #0x0178
      000913 09               [11] 1246 	add	hl, bc
      000914 36 20            [10] 1247 	ld	(hl), #0x20
      000916 21 79 01         [10] 1248 	ld	hl, #0x0179
      000919 09               [11] 1249 	add	hl, bc
      00091A 36 20            [10] 1250 	ld	(hl), #0x20
      00091C 21 7A 01         [10] 1251 	ld	hl, #0x017a
      00091F 09               [11] 1252 	add	hl, bc
      000920 36 2E            [10] 1253 	ld	(hl), #0x2e
      000922 21 7B 01         [10] 1254 	ld	hl, #0x017b
      000925 09               [11] 1255 	add	hl, bc
      000926 36 3A            [10] 1256 	ld	(hl), #0x3a
      000928 21 7C 01         [10] 1257 	ld	hl, #0x017c
      00092B 09               [11] 1258 	add	hl, bc
      00092C 36 2E            [10] 1259 	ld	(hl), #0x2e
      00092E 21 7D 01         [10] 1260 	ld	hl, #0x017d
      000931 09               [11] 1261 	add	hl, bc
      000932 36 20            [10] 1262 	ld	(hl), #0x20
      000934 21 7E 01         [10] 1263 	ld	hl, #0x017e
      000937 09               [11] 1264 	add	hl, bc
      000938 36 2E            [10] 1265 	ld	(hl), #0x2e
      00093A 21 7F 01         [10] 1266 	ld	hl, #0x017f
      00093D 09               [11] 1267 	add	hl, bc
      00093E 36 3A            [10] 1268 	ld	(hl), #0x3a
      000940 21 80 01         [10] 1269 	ld	hl, #0x0180
      000943 09               [11] 1270 	add	hl, bc
      000944 36 2E            [10] 1271 	ld	(hl), #0x2e
      000946 21 81 01         [10] 1272 	ld	hl, #0x0181
      000949 09               [11] 1273 	add	hl, bc
      00094A 36 20            [10] 1274 	ld	(hl), #0x20
      00094C 21 82 01         [10] 1275 	ld	hl, #0x0182
      00094F 09               [11] 1276 	add	hl, bc
      000950 36 20            [10] 1277 	ld	(hl), #0x20
      000952 21 83 01         [10] 1278 	ld	hl, #0x0183
      000955 09               [11] 1279 	add	hl, bc
      000956 36 20            [10] 1280 	ld	(hl), #0x20
      000958 21 84 01         [10] 1281 	ld	hl, #0x0184
      00095B 09               [11] 1282 	add	hl, bc
      00095C 36 20            [10] 1283 	ld	(hl), #0x20
      00095E 21 85 01         [10] 1284 	ld	hl, #0x0185
      000961 09               [11] 1285 	add	hl, bc
      000962 36 20            [10] 1286 	ld	(hl), #0x20
      000964 21 86 01         [10] 1287 	ld	hl, #0x0186
      000967 09               [11] 1288 	add	hl, bc
      000968 36 20            [10] 1289 	ld	(hl), #0x20
      00096A 21 87 01         [10] 1290 	ld	hl, #0x0187
      00096D 09               [11] 1291 	add	hl, bc
      00096E 36 2E            [10] 1292 	ld	(hl), #0x2e
      000970 21 88 01         [10] 1293 	ld	hl, #0x0188
      000973 09               [11] 1294 	add	hl, bc
      000974 36 2D            [10] 1295 	ld	(hl), #0x2d
      000976 21 89 01         [10] 1296 	ld	hl, #0x0189
      000979 09               [11] 1297 	add	hl, bc
      00097A 36 2D            [10] 1298 	ld	(hl), #0x2d
      00097C 21 8A 01         [10] 1299 	ld	hl, #0x018a
      00097F 09               [11] 1300 	add	hl, bc
      000980 36 2D            [10] 1301 	ld	(hl), #0x2d
      000982 21 8B 01         [10] 1302 	ld	hl, #0x018b
      000985 09               [11] 1303 	add	hl, bc
      000986 36 2E            [10] 1304 	ld	(hl), #0x2e
      000988 21 8C 01         [10] 1305 	ld	hl, #0x018c
      00098B 09               [11] 1306 	add	hl, bc
      00098C 36 20            [10] 1307 	ld	(hl), #0x20
      00098E 21 8D 01         [10] 1308 	ld	hl, #0x018d
      000991 09               [11] 1309 	add	hl, bc
      000992 36 20            [10] 1310 	ld	(hl), #0x20
      000994 21 8E 01         [10] 1311 	ld	hl, #0x018e
      000997 09               [11] 1312 	add	hl, bc
      000998 36 2E            [10] 1313 	ld	(hl), #0x2e
      00099A 21 8F 01         [10] 1314 	ld	hl, #0x018f
      00099D 09               [11] 1315 	add	hl, bc
      00099E 36 2E            [10] 1316 	ld	(hl), #0x2e
      0009A0 21 90 01         [10] 1317 	ld	hl, #0x0190
      0009A3 09               [11] 1318 	add	hl, bc
      0009A4 36 20            [10] 1319 	ld	(hl), #0x20
      0009A6 21 91 01         [10] 1320 	ld	hl, #0x0191
      0009A9 09               [11] 1321 	add	hl, bc
      0009AA 36 20            [10] 1322 	ld	(hl), #0x20
      0009AC 21 92 01         [10] 1323 	ld	hl, #0x0192
      0009AF 09               [11] 1324 	add	hl, bc
      0009B0 36 20            [10] 1325 	ld	(hl), #0x20
      0009B2 21 93 01         [10] 1326 	ld	hl, #0x0193
      0009B5 09               [11] 1327 	add	hl, bc
      0009B6 36 20            [10] 1328 	ld	(hl), #0x20
      0009B8 21 94 01         [10] 1329 	ld	hl, #0x0194
      0009BB 09               [11] 1330 	add	hl, bc
      0009BC 36 20            [10] 1331 	ld	(hl), #0x20
      0009BE 21 95 01         [10] 1332 	ld	hl, #0x0195
      0009C1 09               [11] 1333 	add	hl, bc
      0009C2 36 20            [10] 1334 	ld	(hl), #0x20
      0009C4 21 96 01         [10] 1335 	ld	hl, #0x0196
      0009C7 09               [11] 1336 	add	hl, bc
      0009C8 36 20            [10] 1337 	ld	(hl), #0x20
      0009CA 21 97 01         [10] 1338 	ld	hl, #0x0197
      0009CD 09               [11] 1339 	add	hl, bc
      0009CE 36 20            [10] 1340 	ld	(hl), #0x20
      0009D0 21 98 01         [10] 1341 	ld	hl, #0x0198
      0009D3 09               [11] 1342 	add	hl, bc
      0009D4 36 20            [10] 1343 	ld	(hl), #0x20
      0009D6 21 99 01         [10] 1344 	ld	hl, #0x0199
      0009D9 09               [11] 1345 	add	hl, bc
      0009DA 36 0A            [10] 1346 	ld	(hl), #0x0a
      0009DC 21 9A 01         [10] 1347 	ld	hl, #0x019a
      0009DF 09               [11] 1348 	add	hl, bc
      0009E0 36 20            [10] 1349 	ld	(hl), #0x20
      0009E2 21 9B 01         [10] 1350 	ld	hl, #0x019b
      0009E5 09               [11] 1351 	add	hl, bc
      0009E6 36 20            [10] 1352 	ld	(hl), #0x20
      0009E8 21 9C 01         [10] 1353 	ld	hl, #0x019c
      0009EB 09               [11] 1354 	add	hl, bc
      0009EC 36 20            [10] 1355 	ld	(hl), #0x20
      0009EE 21 9D 01         [10] 1356 	ld	hl, #0x019d
      0009F1 09               [11] 1357 	add	hl, bc
      0009F2 36 20            [10] 1358 	ld	(hl), #0x20
      0009F4 21 9E 01         [10] 1359 	ld	hl, #0x019e
      0009F7 09               [11] 1360 	add	hl, bc
      0009F8 36 20            [10] 1361 	ld	(hl), #0x20
      0009FA 21 9F 01         [10] 1362 	ld	hl, #0x019f
      0009FD 09               [11] 1363 	add	hl, bc
      0009FE 36 20            [10] 1364 	ld	(hl), #0x20
      000A00 21 A0 01         [10] 1365 	ld	hl, #0x01a0
      000A03 09               [11] 1366 	add	hl, bc
      000A04 36 20            [10] 1367 	ld	(hl), #0x20
      000A06 21 A1 01         [10] 1368 	ld	hl, #0x01a1
      000A09 09               [11] 1369 	add	hl, bc
      000A0A 36 2E            [10] 1370 	ld	(hl), #0x2e
      000A0C 21 A2 01         [10] 1371 	ld	hl, #0x01a2
      000A0F 09               [11] 1372 	add	hl, bc
      000A10 36 3A            [10] 1373 	ld	(hl), #0x3a
      000A12 21 A3 01         [10] 1374 	ld	hl, #0x01a3
      000A15 09               [11] 1375 	add	hl, bc
      000A16 36 2E            [10] 1376 	ld	(hl), #0x2e
      000A18 21 A4 01         [10] 1377 	ld	hl, #0x01a4
      000A1B 09               [11] 1378 	add	hl, bc
      000A1C 36 20            [10] 1379 	ld	(hl), #0x20
      000A1E 21 A5 01         [10] 1380 	ld	hl, #0x01a5
      000A21 09               [11] 1381 	add	hl, bc
      000A22 36 2E            [10] 1382 	ld	(hl), #0x2e
      000A24 21 A6 01         [10] 1383 	ld	hl, #0x01a6
      000A27 09               [11] 1384 	add	hl, bc
      000A28 36 3A            [10] 1385 	ld	(hl), #0x3a
      000A2A 21 A7 01         [10] 1386 	ld	hl, #0x01a7
      000A2D 09               [11] 1387 	add	hl, bc
      000A2E 36 2E            [10] 1388 	ld	(hl), #0x2e
      000A30 21 A8 01         [10] 1389 	ld	hl, #0x01a8
      000A33 09               [11] 1390 	add	hl, bc
      000A34 36 20            [10] 1391 	ld	(hl), #0x20
      000A36 21 A9 01         [10] 1392 	ld	hl, #0x01a9
      000A39 09               [11] 1393 	add	hl, bc
      000A3A 36 20            [10] 1394 	ld	(hl), #0x20
      000A3C 21 AA 01         [10] 1395 	ld	hl, #0x01aa
      000A3F 09               [11] 1396 	add	hl, bc
      000A40 36 20            [10] 1397 	ld	(hl), #0x20
      000A42 21 AB 01         [10] 1398 	ld	hl, #0x01ab
      000A45 09               [11] 1399 	add	hl, bc
      000A46 36 20            [10] 1400 	ld	(hl), #0x20
      000A48 21 AC 01         [10] 1401 	ld	hl, #0x01ac
      000A4B 09               [11] 1402 	add	hl, bc
      000A4C 36 20            [10] 1403 	ld	(hl), #0x20
      000A4E 21 AD 01         [10] 1404 	ld	hl, #0x01ad
      000A51 09               [11] 1405 	add	hl, bc
      000A52 36 20            [10] 1406 	ld	(hl), #0x20
      000A54 21 AE 01         [10] 1407 	ld	hl, #0x01ae
      000A57 09               [11] 1408 	add	hl, bc
      000A58 36 2E            [10] 1409 	ld	(hl), #0x2e
      000A5A 21 AF 01         [10] 1410 	ld	hl, #0x01af
      000A5D 09               [11] 1411 	add	hl, bc
      000A5E 36 2D            [10] 1412 	ld	(hl), #0x2d
      000A60 21 B0 01         [10] 1413 	ld	hl, #0x01b0
      000A63 09               [11] 1414 	add	hl, bc
      000A64 36 2D            [10] 1415 	ld	(hl), #0x2d
      000A66 21 B1 01         [10] 1416 	ld	hl, #0x01b1
      000A69 09               [11] 1417 	add	hl, bc
      000A6A 36 2D            [10] 1418 	ld	(hl), #0x2d
      000A6C 21 B2 01         [10] 1419 	ld	hl, #0x01b2
      000A6F 09               [11] 1420 	add	hl, bc
      000A70 36 2E            [10] 1421 	ld	(hl), #0x2e
      000A72 21 B3 01         [10] 1422 	ld	hl, #0x01b3
      000A75 09               [11] 1423 	add	hl, bc
      000A76 36 20            [10] 1424 	ld	(hl), #0x20
      000A78 21 B4 01         [10] 1425 	ld	hl, #0x01b4
      000A7B 09               [11] 1426 	add	hl, bc
      000A7C 36 20            [10] 1427 	ld	(hl), #0x20
      000A7E 21 B5 01         [10] 1428 	ld	hl, #0x01b5
      000A81 09               [11] 1429 	add	hl, bc
      000A82 36 2E            [10] 1430 	ld	(hl), #0x2e
      000A84 21 B6 01         [10] 1431 	ld	hl, #0x01b6
      000A87 09               [11] 1432 	add	hl, bc
      000A88 36 2D            [10] 1433 	ld	(hl), #0x2d
      000A8A 21 B7 01         [10] 1434 	ld	hl, #0x01b7
      000A8D 09               [11] 1435 	add	hl, bc
      000A8E 36 2E            [10] 1436 	ld	(hl), #0x2e
      000A90 21 B8 01         [10] 1437 	ld	hl, #0x01b8
      000A93 09               [11] 1438 	add	hl, bc
      000A94 36 2E            [10] 1439 	ld	(hl), #0x2e
      000A96 21 B9 01         [10] 1440 	ld	hl, #0x01b9
      000A99 09               [11] 1441 	add	hl, bc
      000A9A 36 3A            [10] 1442 	ld	(hl), #0x3a
      000A9C 21 BA 01         [10] 1443 	ld	hl, #0x01ba
      000A9F 09               [11] 1444 	add	hl, bc
      000AA0 36 2E            [10] 1445 	ld	(hl), #0x2e
      000AA2 21 BB 01         [10] 1446 	ld	hl, #0x01bb
      000AA5 09               [11] 1447 	add	hl, bc
      000AA6 36 20            [10] 1448 	ld	(hl), #0x20
      000AA8 21 BC 01         [10] 1449 	ld	hl, #0x01bc
      000AAB 09               [11] 1450 	add	hl, bc
      000AAC 36 20            [10] 1451 	ld	(hl), #0x20
      000AAE 21 BD 01         [10] 1452 	ld	hl, #0x01bd
      000AB1 09               [11] 1453 	add	hl, bc
      000AB2 36 20            [10] 1454 	ld	(hl), #0x20
      000AB4 21 BE 01         [10] 1455 	ld	hl, #0x01be
      000AB7 09               [11] 1456 	add	hl, bc
      000AB8 36 20            [10] 1457 	ld	(hl), #0x20
      000ABA 21 BF 01         [10] 1458 	ld	hl, #0x01bf
      000ABD 09               [11] 1459 	add	hl, bc
      000ABE 36 20            [10] 1460 	ld	(hl), #0x20
      000AC0 21 C0 01         [10] 1461 	ld	hl, #0x01c0
      000AC3 09               [11] 1462 	add	hl, bc
      000AC4 36 20            [10] 1463 	ld	(hl), #0x20
      000AC6 21 C1 01         [10] 1464 	ld	hl, #0x01c1
      000AC9 09               [11] 1465 	add	hl, bc
      000ACA 36 20            [10] 1466 	ld	(hl), #0x20
      000ACC 21 C2 01         [10] 1467 	ld	hl, #0x01c2
      000ACF 09               [11] 1468 	add	hl, bc
      000AD0 36 0A            [10] 1469 	ld	(hl), #0x0a
      000AD2 21 C3 01         [10] 1470 	ld	hl, #0x01c3
      000AD5 09               [11] 1471 	add	hl, bc
      000AD6 36 20            [10] 1472 	ld	(hl), #0x20
      000AD8 21 C4 01         [10] 1473 	ld	hl, #0x01c4
      000ADB 09               [11] 1474 	add	hl, bc
      000ADC 36 20            [10] 1475 	ld	(hl), #0x20
      000ADE 21 C5 01         [10] 1476 	ld	hl, #0x01c5
      000AE1 09               [11] 1477 	add	hl, bc
      000AE2 36 20            [10] 1478 	ld	(hl), #0x20
      000AE4 21 C6 01         [10] 1479 	ld	hl, #0x01c6
      000AE7 09               [11] 1480 	add	hl, bc
      000AE8 36 20            [10] 1481 	ld	(hl), #0x20
      000AEA 21 C7 01         [10] 1482 	ld	hl, #0x01c7
      000AED 09               [11] 1483 	add	hl, bc
      000AEE 36 20            [10] 1484 	ld	(hl), #0x20
      000AF0 21 C8 01         [10] 1485 	ld	hl, #0x01c8
      000AF3 09               [11] 1486 	add	hl, bc
      000AF4 36 2E            [10] 1487 	ld	(hl), #0x2e
      000AF6 21 C9 01         [10] 1488 	ld	hl, #0x01c9
      000AF9 09               [11] 1489 	add	hl, bc
      000AFA 36 3A            [10] 1490 	ld	(hl), #0x3a
      000AFC 21 CA 01         [10] 1491 	ld	hl, #0x01ca
      000AFF 09               [11] 1492 	add	hl, bc
      000B00 36 2E            [10] 1493 	ld	(hl), #0x2e
      000B02 21 CB 01         [10] 1494 	ld	hl, #0x01cb
      000B05 09               [11] 1495 	add	hl, bc
      000B06 36 20            [10] 1496 	ld	(hl), #0x20
      000B08 21 CC 01         [10] 1497 	ld	hl, #0x01cc
      000B0B 09               [11] 1498 	add	hl, bc
      000B0C 36 2E            [10] 1499 	ld	(hl), #0x2e
      000B0E 21 CD 01         [10] 1500 	ld	hl, #0x01cd
      000B11 09               [11] 1501 	add	hl, bc
      000B12 36 3A            [10] 1502 	ld	(hl), #0x3a
      000B14 21 CE 01         [10] 1503 	ld	hl, #0x01ce
      000B17 09               [11] 1504 	add	hl, bc
      000B18 36 2E            [10] 1505 	ld	(hl), #0x2e
      000B1A 21 CF 01         [10] 1506 	ld	hl, #0x01cf
      000B1D 09               [11] 1507 	add	hl, bc
      000B1E 36 20            [10] 1508 	ld	(hl), #0x20
      000B20 21 D0 01         [10] 1509 	ld	hl, #0x01d0
      000B23 09               [11] 1510 	add	hl, bc
      000B24 36 20            [10] 1511 	ld	(hl), #0x20
      000B26 21 D1 01         [10] 1512 	ld	hl, #0x01d1
      000B29 09               [11] 1513 	add	hl, bc
      000B2A 36 20            [10] 1514 	ld	(hl), #0x20
      000B2C 21 D2 01         [10] 1515 	ld	hl, #0x01d2
      000B2F 09               [11] 1516 	add	hl, bc
      000B30 36 20            [10] 1517 	ld	(hl), #0x20
      000B32 21 D3 01         [10] 1518 	ld	hl, #0x01d3
      000B35 09               [11] 1519 	add	hl, bc
      000B36 36 20            [10] 1520 	ld	(hl), #0x20
      000B38 21 D4 01         [10] 1521 	ld	hl, #0x01d4
      000B3B 09               [11] 1522 	add	hl, bc
      000B3C 36 20            [10] 1523 	ld	(hl), #0x20
      000B3E 21 D5 01         [10] 1524 	ld	hl, #0x01d5
      000B41 09               [11] 1525 	add	hl, bc
      000B42 36 2E            [10] 1526 	ld	(hl), #0x2e
      000B44 21 D6 01         [10] 1527 	ld	hl, #0x01d6
      000B47 09               [11] 1528 	add	hl, bc
      000B48 36 2D            [10] 1529 	ld	(hl), #0x2d
      000B4A 21 D7 01         [10] 1530 	ld	hl, #0x01d7
      000B4D 09               [11] 1531 	add	hl, bc
      000B4E 36 2D            [10] 1532 	ld	(hl), #0x2d
      000B50 21 D8 01         [10] 1533 	ld	hl, #0x01d8
      000B53 09               [11] 1534 	add	hl, bc
      000B54 36 2D            [10] 1535 	ld	(hl), #0x2d
      000B56 21 D9 01         [10] 1536 	ld	hl, #0x01d9
      000B59 09               [11] 1537 	add	hl, bc
      000B5A 36 3A            [10] 1538 	ld	(hl), #0x3a
      000B5C 21 DA 01         [10] 1539 	ld	hl, #0x01da
      000B5F 09               [11] 1540 	add	hl, bc
      000B60 36 20            [10] 1541 	ld	(hl), #0x20
      000B62 21 DB 01         [10] 1542 	ld	hl, #0x01db
      000B65 09               [11] 1543 	add	hl, bc
      000B66 36 20            [10] 1544 	ld	(hl), #0x20
      000B68 21 DC 01         [10] 1545 	ld	hl, #0x01dc
      000B6B 09               [11] 1546 	add	hl, bc
      000B6C 36 20            [10] 1547 	ld	(hl), #0x20
      000B6E 21 DD 01         [10] 1548 	ld	hl, #0x01dd
      000B71 09               [11] 1549 	add	hl, bc
      000B72 36 20            [10] 1550 	ld	(hl), #0x20
      000B74 21 DE 01         [10] 1551 	ld	hl, #0x01de
      000B77 09               [11] 1552 	add	hl, bc
      000B78 36 20            [10] 1553 	ld	(hl), #0x20
      000B7A 21 DF 01         [10] 1554 	ld	hl, #0x01df
      000B7D 09               [11] 1555 	add	hl, bc
      000B7E 36 2E            [10] 1556 	ld	(hl), #0x2e
      000B80 21 E0 01         [10] 1557 	ld	hl, #0x01e0
      000B83 09               [11] 1558 	add	hl, bc
      000B84 36 3A            [10] 1559 	ld	(hl), #0x3a
      000B86 21 E1 01         [10] 1560 	ld	hl, #0x01e1
      000B89 09               [11] 1561 	add	hl, bc
      000B8A 36 20            [10] 1562 	ld	(hl), #0x20
      000B8C 21 E2 01         [10] 1563 	ld	hl, #0x01e2
      000B8F 09               [11] 1564 	add	hl, bc
      000B90 36 20            [10] 1565 	ld	(hl), #0x20
      000B92 21 E3 01         [10] 1566 	ld	hl, #0x01e3
      000B95 09               [11] 1567 	add	hl, bc
      000B96 36 2E            [10] 1568 	ld	(hl), #0x2e
      000B98 21 E4 01         [10] 1569 	ld	hl, #0x01e4
      000B9B 09               [11] 1570 	add	hl, bc
      000B9C 36 3A            [10] 1571 	ld	(hl), #0x3a
      000B9E 21 E5 01         [10] 1572 	ld	hl, #0x01e5
      000BA1 09               [11] 1573 	add	hl, bc
      000BA2 36 2E            [10] 1574 	ld	(hl), #0x2e
      000BA4 21 E6 01         [10] 1575 	ld	hl, #0x01e6
      000BA7 09               [11] 1576 	add	hl, bc
      000BA8 36 20            [10] 1577 	ld	(hl), #0x20
      000BAA 21 E7 01         [10] 1578 	ld	hl, #0x01e7
      000BAD 09               [11] 1579 	add	hl, bc
      000BAE 36 20            [10] 1580 	ld	(hl), #0x20
      000BB0 21 E8 01         [10] 1581 	ld	hl, #0x01e8
      000BB3 09               [11] 1582 	add	hl, bc
      000BB4 36 20            [10] 1583 	ld	(hl), #0x20
      000BB6 21 E9 01         [10] 1584 	ld	hl, #0x01e9
      000BB9 09               [11] 1585 	add	hl, bc
      000BBA 36 20            [10] 1586 	ld	(hl), #0x20
      000BBC 21 EA 01         [10] 1587 	ld	hl, #0x01ea
      000BBF 09               [11] 1588 	add	hl, bc
      000BC0 36 20            [10] 1589 	ld	(hl), #0x20
      000BC2 21 EB 01         [10] 1590 	ld	hl, #0x01eb
      000BC5 09               [11] 1591 	add	hl, bc
      000BC6 36 0A            [10] 1592 	ld	(hl), #0x0a
      000BC8 21 EC 01         [10] 1593 	ld	hl, #0x01ec
      000BCB 09               [11] 1594 	add	hl, bc
      000BCC 36 20            [10] 1595 	ld	(hl), #0x20
      000BCE 21 ED 01         [10] 1596 	ld	hl, #0x01ed
      000BD1 09               [11] 1597 	add	hl, bc
      000BD2 36 20            [10] 1598 	ld	(hl), #0x20
      000BD4 21 EE 01         [10] 1599 	ld	hl, #0x01ee
      000BD7 09               [11] 1600 	add	hl, bc
      000BD8 36 20            [10] 1601 	ld	(hl), #0x20
      000BDA 21 EF 01         [10] 1602 	ld	hl, #0x01ef
      000BDD 09               [11] 1603 	add	hl, bc
      000BDE 36 2E            [10] 1604 	ld	(hl), #0x2e
      000BE0 21 F0 01         [10] 1605 	ld	hl, #0x01f0
      000BE3 09               [11] 1606 	add	hl, bc
      000BE4 36 3A            [10] 1607 	ld	(hl), #0x3a
      000BE6 21 F1 01         [10] 1608 	ld	hl, #0x01f1
      000BE9 09               [11] 1609 	add	hl, bc
      000BEA 36 2E            [10] 1610 	ld	(hl), #0x2e
      000BEC 21 F2 01         [10] 1611 	ld	hl, #0x01f2
      000BEF 09               [11] 1612 	add	hl, bc
      000BF0 36 20            [10] 1613 	ld	(hl), #0x20
      000BF2 21 F3 01         [10] 1614 	ld	hl, #0x01f3
      000BF5 09               [11] 1615 	add	hl, bc
      000BF6 36 2E            [10] 1616 	ld	(hl), #0x2e
      000BF8 21 F4 01         [10] 1617 	ld	hl, #0x01f4
      000BFB 09               [11] 1618 	add	hl, bc
      000BFC 36 3A            [10] 1619 	ld	(hl), #0x3a
      000BFE 21 F5 01         [10] 1620 	ld	hl, #0x01f5
      000C01 09               [11] 1621 	add	hl, bc
      000C02 36 2E            [10] 1622 	ld	(hl), #0x2e
      000C04 21 F6 01         [10] 1623 	ld	hl, #0x01f6
      000C07 09               [11] 1624 	add	hl, bc
      000C08 36 20            [10] 1625 	ld	(hl), #0x20
      000C0A 21 F7 01         [10] 1626 	ld	hl, #0x01f7
      000C0D 09               [11] 1627 	add	hl, bc
      000C0E 36 20            [10] 1628 	ld	(hl), #0x20
      000C10 21 F8 01         [10] 1629 	ld	hl, #0x01f8
      000C13 09               [11] 1630 	add	hl, bc
      000C14 36 20            [10] 1631 	ld	(hl), #0x20
      000C16 21 F9 01         [10] 1632 	ld	hl, #0x01f9
      000C19 09               [11] 1633 	add	hl, bc
      000C1A 36 20            [10] 1634 	ld	(hl), #0x20
      000C1C 21 FA 01         [10] 1635 	ld	hl, #0x01fa
      000C1F 09               [11] 1636 	add	hl, bc
      000C20 36 20            [10] 1637 	ld	(hl), #0x20
      000C22 21 FB 01         [10] 1638 	ld	hl, #0x01fb
      000C25 09               [11] 1639 	add	hl, bc
      000C26 36 20            [10] 1640 	ld	(hl), #0x20
      000C28 21 FC 01         [10] 1641 	ld	hl, #0x01fc
      000C2B 09               [11] 1642 	add	hl, bc
      000C2C 36 2E            [10] 1643 	ld	(hl), #0x2e
      000C2E 21 FD 01         [10] 1644 	ld	hl, #0x01fd
      000C31 09               [11] 1645 	add	hl, bc
      000C32 36 2D            [10] 1646 	ld	(hl), #0x2d
      000C34 21 FE 01         [10] 1647 	ld	hl, #0x01fe
      000C37 09               [11] 1648 	add	hl, bc
      000C38 36 2D            [10] 1649 	ld	(hl), #0x2d
      000C3A 21 FF 01         [10] 1650 	ld	hl, #0x01ff
      000C3D 09               [11] 1651 	add	hl, bc
      000C3E 36 2D            [10] 1652 	ld	(hl), #0x2d
      000C40 21 00 02         [10] 1653 	ld	hl, #0x0200
      000C43 09               [11] 1654 	add	hl, bc
      000C44 36 2D            [10] 1655 	ld	(hl), #0x2d
      000C46 21 01 02         [10] 1656 	ld	hl, #0x0201
      000C49 09               [11] 1657 	add	hl, bc
      000C4A 36 2D            [10] 1658 	ld	(hl), #0x2d
      000C4C 21 02 02         [10] 1659 	ld	hl, #0x0202
      000C4F 09               [11] 1660 	add	hl, bc
      000C50 36 2D            [10] 1661 	ld	(hl), #0x2d
      000C52 21 03 02         [10] 1662 	ld	hl, #0x0203
      000C55 09               [11] 1663 	add	hl, bc
      000C56 36 2D            [10] 1664 	ld	(hl), #0x2d
      000C58 21 04 02         [10] 1665 	ld	hl, #0x0204
      000C5B 09               [11] 1666 	add	hl, bc
      000C5C 36 3A            [10] 1667 	ld	(hl), #0x3a
      000C5E 21 05 02         [10] 1668 	ld	hl, #0x0205
      000C61 09               [11] 1669 	add	hl, bc
      000C62 36 20            [10] 1670 	ld	(hl), #0x20
      000C64 21 06 02         [10] 1671 	ld	hl, #0x0206
      000C67 09               [11] 1672 	add	hl, bc
      000C68 36 20            [10] 1673 	ld	(hl), #0x20
      000C6A 21 07 02         [10] 1674 	ld	hl, #0x0207
      000C6D 09               [11] 1675 	add	hl, bc
      000C6E 36 20            [10] 1676 	ld	(hl), #0x20
      000C70 21 08 02         [10] 1677 	ld	hl, #0x0208
      000C73 09               [11] 1678 	add	hl, bc
      000C74 36 20            [10] 1679 	ld	(hl), #0x20
      000C76 21 09 02         [10] 1680 	ld	hl, #0x0209
      000C79 09               [11] 1681 	add	hl, bc
      000C7A 36 20            [10] 1682 	ld	(hl), #0x20
      000C7C 21 0A 02         [10] 1683 	ld	hl, #0x020a
      000C7F 09               [11] 1684 	add	hl, bc
      000C80 36 2E            [10] 1685 	ld	(hl), #0x2e
      000C82 21 0B 02         [10] 1686 	ld	hl, #0x020b
      000C85 09               [11] 1687 	add	hl, bc
      000C86 36 3A            [10] 1688 	ld	(hl), #0x3a
      000C88 21 0C 02         [10] 1689 	ld	hl, #0x020c
      000C8B 09               [11] 1690 	add	hl, bc
      000C8C 36 20            [10] 1691 	ld	(hl), #0x20
      000C8E 21 0D 02         [10] 1692 	ld	hl, #0x020d
      000C91 09               [11] 1693 	add	hl, bc
      000C92 36 20            [10] 1694 	ld	(hl), #0x20
      000C94 21 0E 02         [10] 1695 	ld	hl, #0x020e
      000C97 09               [11] 1696 	add	hl, bc
      000C98 36 2E            [10] 1697 	ld	(hl), #0x2e
      000C9A 21 0F 02         [10] 1698 	ld	hl, #0x020f
      000C9D 09               [11] 1699 	add	hl, bc
      000C9E 36 3A            [10] 1700 	ld	(hl), #0x3a
      000CA0 21 10 02         [10] 1701 	ld	hl, #0x0210
      000CA3 09               [11] 1702 	add	hl, bc
      000CA4 36 2E            [10] 1703 	ld	(hl), #0x2e
      000CA6 21 11 02         [10] 1704 	ld	hl, #0x0211
      000CA9 09               [11] 1705 	add	hl, bc
      000CAA 36 20            [10] 1706 	ld	(hl), #0x20
      000CAC 21 12 02         [10] 1707 	ld	hl, #0x0212
      000CAF 09               [11] 1708 	add	hl, bc
      000CB0 36 20            [10] 1709 	ld	(hl), #0x20
      000CB2 21 13 02         [10] 1710 	ld	hl, #0x0213
      000CB5 09               [11] 1711 	add	hl, bc
      000CB6 36 20            [10] 1712 	ld	(hl), #0x20
      000CB8 21 14 02         [10] 1713 	ld	hl, #0x0214
      000CBB 09               [11] 1714 	add	hl, bc
      000CBC 36 0A            [10] 1715 	ld	(hl), #0x0a
      000CBE 21 15 02         [10] 1716 	ld	hl, #0x0215
      000CC1 09               [11] 1717 	add	hl, bc
      000CC2 36 20            [10] 1718 	ld	(hl), #0x20
      000CC4 21 16 02         [10] 1719 	ld	hl, #0x0216
      000CC7 09               [11] 1720 	add	hl, bc
      000CC8 36 20            [10] 1721 	ld	(hl), #0x20
      000CCA 21 17 02         [10] 1722 	ld	hl, #0x0217
      000CCD 09               [11] 1723 	add	hl, bc
      000CCE 36 3A            [10] 1724 	ld	(hl), #0x3a
      000CD0 21 18 02         [10] 1725 	ld	hl, #0x0218
      000CD3 09               [11] 1726 	add	hl, bc
      000CD4 36 2E            [10] 1727 	ld	(hl), #0x2e
      000CD6 21 19 02         [10] 1728 	ld	hl, #0x0219
      000CD9 09               [11] 1729 	add	hl, bc
      000CDA 36 20            [10] 1730 	ld	(hl), #0x20
      000CDC 21 1A 02         [10] 1731 	ld	hl, #0x021a
      000CDF 09               [11] 1732 	add	hl, bc
      000CE0 36 2E            [10] 1733 	ld	(hl), #0x2e
      000CE2 21 1B 02         [10] 1734 	ld	hl, #0x021b
      000CE5 09               [11] 1735 	add	hl, bc
      000CE6 36 3A            [10] 1736 	ld	(hl), #0x3a
      000CE8 21 1C 02         [10] 1737 	ld	hl, #0x021c
      000CEB 09               [11] 1738 	add	hl, bc
      000CEC 36 2E            [10] 1739 	ld	(hl), #0x2e
      000CEE 21 1D 02         [10] 1740 	ld	hl, #0x021d
      000CF1 09               [11] 1741 	add	hl, bc
      000CF2 36 20            [10] 1742 	ld	(hl), #0x20
      000CF4 21 1E 02         [10] 1743 	ld	hl, #0x021e
      000CF7 09               [11] 1744 	add	hl, bc
      000CF8 36 20            [10] 1745 	ld	(hl), #0x20
      000CFA 21 1F 02         [10] 1746 	ld	hl, #0x021f
      000CFD 09               [11] 1747 	add	hl, bc
      000CFE 36 20            [10] 1748 	ld	(hl), #0x20
      000D00 21 20 02         [10] 1749 	ld	hl, #0x0220
      000D03 09               [11] 1750 	add	hl, bc
      000D04 36 20            [10] 1751 	ld	(hl), #0x20
      000D06 21 21 02         [10] 1752 	ld	hl, #0x0221
      000D09 09               [11] 1753 	add	hl, bc
      000D0A 36 20            [10] 1754 	ld	(hl), #0x20
      000D0C 21 22 02         [10] 1755 	ld	hl, #0x0222
      000D0F 09               [11] 1756 	add	hl, bc
      000D10 36 20            [10] 1757 	ld	(hl), #0x20
      000D12 21 23 02         [10] 1758 	ld	hl, #0x0223
      000D15 09               [11] 1759 	add	hl, bc
      000D16 36 20            [10] 1760 	ld	(hl), #0x20
      000D18 21 24 02         [10] 1761 	ld	hl, #0x0224
      000D1B 09               [11] 1762 	add	hl, bc
      000D1C 36 2E            [10] 1763 	ld	(hl), #0x2e
      000D1E 21 25 02         [10] 1764 	ld	hl, #0x0225
      000D21 09               [11] 1765 	add	hl, bc
      000D22 36 3A            [10] 1766 	ld	(hl), #0x3a
      000D24 21 26 02         [10] 1767 	ld	hl, #0x0226
      000D27 09               [11] 1768 	add	hl, bc
      000D28 36 3A            [10] 1769 	ld	(hl), #0x3a
      000D2A 21 27 02         [10] 1770 	ld	hl, #0x0227
      000D2D 09               [11] 1771 	add	hl, bc
      000D2E 36 3A            [10] 1772 	ld	(hl), #0x3a
      000D30 21 28 02         [10] 1773 	ld	hl, #0x0228
      000D33 09               [11] 1774 	add	hl, bc
      000D34 36 3A            [10] 1775 	ld	(hl), #0x3a
      000D36 21 29 02         [10] 1776 	ld	hl, #0x0229
      000D39 09               [11] 1777 	add	hl, bc
      000D3A 36 3A            [10] 1778 	ld	(hl), #0x3a
      000D3C 21 2A 02         [10] 1779 	ld	hl, #0x022a
      000D3F 09               [11] 1780 	add	hl, bc
      000D40 36 3A            [10] 1781 	ld	(hl), #0x3a
      000D42 21 2B 02         [10] 1782 	ld	hl, #0x022b
      000D45 09               [11] 1783 	add	hl, bc
      000D46 36 3A            [10] 1784 	ld	(hl), #0x3a
      000D48 21 2C 02         [10] 1785 	ld	hl, #0x022c
      000D4B 09               [11] 1786 	add	hl, bc
      000D4C 36 3A            [10] 1787 	ld	(hl), #0x3a
      000D4E 21 2D 02         [10] 1788 	ld	hl, #0x022d
      000D51 09               [11] 1789 	add	hl, bc
      000D52 36 3A            [10] 1790 	ld	(hl), #0x3a
      000D54 21 2E 02         [10] 1791 	ld	hl, #0x022e
      000D57 09               [11] 1792 	add	hl, bc
      000D58 36 2E            [10] 1793 	ld	(hl), #0x2e
      000D5A 21 2F 02         [10] 1794 	ld	hl, #0x022f
      000D5D 09               [11] 1795 	add	hl, bc
      000D5E 36 20            [10] 1796 	ld	(hl), #0x20
      000D60 21 30 02         [10] 1797 	ld	hl, #0x0230
      000D63 09               [11] 1798 	add	hl, bc
      000D64 36 20            [10] 1799 	ld	(hl), #0x20
      000D66 21 31 02         [10] 1800 	ld	hl, #0x0231
      000D69 09               [11] 1801 	add	hl, bc
      000D6A 36 20            [10] 1802 	ld	(hl), #0x20
      000D6C 21 32 02         [10] 1803 	ld	hl, #0x0232
      000D6F 09               [11] 1804 	add	hl, bc
      000D70 36 20            [10] 1805 	ld	(hl), #0x20
      000D72 21 33 02         [10] 1806 	ld	hl, #0x0233
      000D75 09               [11] 1807 	add	hl, bc
      000D76 36 20            [10] 1808 	ld	(hl), #0x20
      000D78 21 34 02         [10] 1809 	ld	hl, #0x0234
      000D7B 09               [11] 1810 	add	hl, bc
      000D7C 36 20            [10] 1811 	ld	(hl), #0x20
      000D7E 21 35 02         [10] 1812 	ld	hl, #0x0235
      000D81 09               [11] 1813 	add	hl, bc
      000D82 36 2E            [10] 1814 	ld	(hl), #0x2e
      000D84 21 36 02         [10] 1815 	ld	hl, #0x0236
      000D87 09               [11] 1816 	add	hl, bc
      000D88 36 3A            [10] 1817 	ld	(hl), #0x3a
      000D8A 21 37 02         [10] 1818 	ld	hl, #0x0237
      000D8D 09               [11] 1819 	add	hl, bc
      000D8E 36 20            [10] 1820 	ld	(hl), #0x20
      000D90 21 38 02         [10] 1821 	ld	hl, #0x0238
      000D93 09               [11] 1822 	add	hl, bc
      000D94 36 20            [10] 1823 	ld	(hl), #0x20
      000D96 21 39 02         [10] 1824 	ld	hl, #0x0239
      000D99 09               [11] 1825 	add	hl, bc
      000D9A 36 2E            [10] 1826 	ld	(hl), #0x2e
      000D9C 21 3A 02         [10] 1827 	ld	hl, #0x023a
      000D9F 09               [11] 1828 	add	hl, bc
      000DA0 36 3A            [10] 1829 	ld	(hl), #0x3a
      000DA2 21 3B 02         [10] 1830 	ld	hl, #0x023b
      000DA5 09               [11] 1831 	add	hl, bc
      000DA6 36 20            [10] 1832 	ld	(hl), #0x20
      000DA8 21 3C 02         [10] 1833 	ld	hl, #0x023c
      000DAB 09               [11] 1834 	add	hl, bc
      000DAC 36 20            [10] 1835 	ld	(hl), #0x20
      000DAE 21 3D 02         [10] 1836 	ld	hl, #0x023d
      000DB1 09               [11] 1837 	add	hl, bc
      000DB2 36 0A            [10] 1838 	ld	(hl), #0x0a
      000DB4 21 3E 02         [10] 1839 	ld	hl, #0x023e
      000DB7 09               [11] 1840 	add	hl, bc
      000DB8 36 2E            [10] 1841 	ld	(hl), #0x2e
      000DBA 21 3F 02         [10] 1842 	ld	hl, #0x023f
      000DBD 09               [11] 1843 	add	hl, bc
      000DBE 36 3A            [10] 1844 	ld	(hl), #0x3a
      000DC0 21 40 02         [10] 1845 	ld	hl, #0x0240
      000DC3 09               [11] 1846 	add	hl, bc
      000DC4 36 20            [10] 1847 	ld	(hl), #0x20
      000DC6 21 41 02         [10] 1848 	ld	hl, #0x0241
      000DC9 09               [11] 1849 	add	hl, bc
      000DCA 36 20            [10] 1850 	ld	(hl), #0x20
      000DCC 21 42 02         [10] 1851 	ld	hl, #0x0242
      000DCF 09               [11] 1852 	add	hl, bc
      000DD0 36 3A            [10] 1853 	ld	(hl), #0x3a
      000DD2 21 43 02         [10] 1854 	ld	hl, #0x0243
      000DD5 09               [11] 1855 	add	hl, bc
      000DD6 36 2E            [10] 1856 	ld	(hl), #0x2e
      000DD8 21 44 02         [10] 1857 	ld	hl, #0x0244
      000DDB 09               [11] 1858 	add	hl, bc
      000DDC 36 20            [10] 1859 	ld	(hl), #0x20
      000DDE 21 45 02         [10] 1860 	ld	hl, #0x0245
      000DE1 09               [11] 1861 	add	hl, bc
      000DE2 36 20            [10] 1862 	ld	(hl), #0x20
      000DE4 21 46 02         [10] 1863 	ld	hl, #0x0246
      000DE7 09               [11] 1864 	add	hl, bc
      000DE8 36 20            [10] 1865 	ld	(hl), #0x20
      000DEA 21 47 02         [10] 1866 	ld	hl, #0x0247
      000DED 09               [11] 1867 	add	hl, bc
      000DEE 36 20            [10] 1868 	ld	(hl), #0x20
      000DF0 21 48 02         [10] 1869 	ld	hl, #0x0248
      000DF3 09               [11] 1870 	add	hl, bc
      000DF4 36 20            [10] 1871 	ld	(hl), #0x20
      000DF6 21 49 02         [10] 1872 	ld	hl, #0x0249
      000DF9 09               [11] 1873 	add	hl, bc
      000DFA 36 20            [10] 1874 	ld	(hl), #0x20
      000DFC 21 4A 02         [10] 1875 	ld	hl, #0x024a
      000DFF 09               [11] 1876 	add	hl, bc
      000E00 36 20            [10] 1877 	ld	(hl), #0x20
      000E02 21 4B 02         [10] 1878 	ld	hl, #0x024b
      000E05 09               [11] 1879 	add	hl, bc
      000E06 36 20            [10] 1880 	ld	(hl), #0x20
      000E08 21 4C 02         [10] 1881 	ld	hl, #0x024c
      000E0B 09               [11] 1882 	add	hl, bc
      000E0C 36 20            [10] 1883 	ld	(hl), #0x20
      000E0E 21 4D 02         [10] 1884 	ld	hl, #0x024d
      000E11 09               [11] 1885 	add	hl, bc
      000E12 36 20            [10] 1886 	ld	(hl), #0x20
      000E14 21 4E 02         [10] 1887 	ld	hl, #0x024e
      000E17 09               [11] 1888 	add	hl, bc
      000E18 36 20            [10] 1889 	ld	(hl), #0x20
      000E1A 21 4F 02         [10] 1890 	ld	hl, #0x024f
      000E1D 09               [11] 1891 	add	hl, bc
      000E1E 36 20            [10] 1892 	ld	(hl), #0x20
      000E20 21 50 02         [10] 1893 	ld	hl, #0x0250
      000E23 09               [11] 1894 	add	hl, bc
      000E24 36 20            [10] 1895 	ld	(hl), #0x20
      000E26 21 51 02         [10] 1896 	ld	hl, #0x0251
      000E29 09               [11] 1897 	add	hl, bc
      000E2A 36 20            [10] 1898 	ld	(hl), #0x20
      000E2C 21 52 02         [10] 1899 	ld	hl, #0x0252
      000E2F 09               [11] 1900 	add	hl, bc
      000E30 36 20            [10] 1901 	ld	(hl), #0x20
      000E32 21 53 02         [10] 1902 	ld	hl, #0x0253
      000E35 09               [11] 1903 	add	hl, bc
      000E36 36 20            [10] 1904 	ld	(hl), #0x20
      000E38 21 54 02         [10] 1905 	ld	hl, #0x0254
      000E3B 09               [11] 1906 	add	hl, bc
      000E3C 36 20            [10] 1907 	ld	(hl), #0x20
      000E3E 21 55 02         [10] 1908 	ld	hl, #0x0255
      000E41 09               [11] 1909 	add	hl, bc
      000E42 36 20            [10] 1910 	ld	(hl), #0x20
      000E44 21 56 02         [10] 1911 	ld	hl, #0x0256
      000E47 09               [11] 1912 	add	hl, bc
      000E48 36 20            [10] 1913 	ld	(hl), #0x20
      000E4A 21 57 02         [10] 1914 	ld	hl, #0x0257
      000E4D 09               [11] 1915 	add	hl, bc
      000E4E 36 20            [10] 1916 	ld	(hl), #0x20
      000E50 21 58 02         [10] 1917 	ld	hl, #0x0258
      000E53 09               [11] 1918 	add	hl, bc
      000E54 36 20            [10] 1919 	ld	(hl), #0x20
      000E56 21 59 02         [10] 1920 	ld	hl, #0x0259
      000E59 09               [11] 1921 	add	hl, bc
      000E5A 36 20            [10] 1922 	ld	(hl), #0x20
      000E5C 21 5A 02         [10] 1923 	ld	hl, #0x025a
      000E5F 09               [11] 1924 	add	hl, bc
      000E60 36 20            [10] 1925 	ld	(hl), #0x20
      000E62 21 5B 02         [10] 1926 	ld	hl, #0x025b
      000E65 09               [11] 1927 	add	hl, bc
      000E66 36 20            [10] 1928 	ld	(hl), #0x20
      000E68 21 5C 02         [10] 1929 	ld	hl, #0x025c
      000E6B 09               [11] 1930 	add	hl, bc
      000E6C 36 20            [10] 1931 	ld	(hl), #0x20
      000E6E 21 5D 02         [10] 1932 	ld	hl, #0x025d
      000E71 09               [11] 1933 	add	hl, bc
      000E72 36 20            [10] 1934 	ld	(hl), #0x20
      000E74 21 5E 02         [10] 1935 	ld	hl, #0x025e
      000E77 09               [11] 1936 	add	hl, bc
      000E78 36 20            [10] 1937 	ld	(hl), #0x20
      000E7A 21 5F 02         [10] 1938 	ld	hl, #0x025f
      000E7D 09               [11] 1939 	add	hl, bc
      000E7E 36 20            [10] 1940 	ld	(hl), #0x20
      000E80 21 60 02         [10] 1941 	ld	hl, #0x0260
      000E83 09               [11] 1942 	add	hl, bc
      000E84 36 2E            [10] 1943 	ld	(hl), #0x2e
      000E86 21 61 02         [10] 1944 	ld	hl, #0x0261
      000E89 09               [11] 1945 	add	hl, bc
      000E8A 36 3A            [10] 1946 	ld	(hl), #0x3a
      000E8C 21 62 02         [10] 1947 	ld	hl, #0x0262
      000E8F 09               [11] 1948 	add	hl, bc
      000E90 36 20            [10] 1949 	ld	(hl), #0x20
      000E92 21 63 02         [10] 1950 	ld	hl, #0x0263
      000E95 09               [11] 1951 	add	hl, bc
      000E96 36 20            [10] 1952 	ld	(hl), #0x20
      000E98 21 64 02         [10] 1953 	ld	hl, #0x0264
      000E9B 09               [11] 1954 	add	hl, bc
      000E9C 36 3A            [10] 1955 	ld	(hl), #0x3a
      000E9E 21 65 02         [10] 1956 	ld	hl, #0x0265
      000EA1 09               [11] 1957 	add	hl, bc
      000EA2 36 2E            [10] 1958 	ld	(hl), #0x2e
      000EA4 21 66 02         [10] 1959 	ld	hl, #0x0266
      000EA7 09               [11] 1960 	add	hl, bc
      000EA8 36 0A            [10] 1961 	ld	(hl), #0x0a
      000EAA 21 67 02         [10] 1962 	ld	hl, #0x0267
      000EAD 09               [11] 1963 	add	hl, bc
      000EAE 36 2D            [10] 1964 	ld	(hl), #0x2d
      000EB0 FD 21 68 02      [14] 1965 	ld	iy, #616
      000EB4 FD 39            [15] 1966 	add	iy, sp
      000EB6 FD 36 00 20      [19] 1967 	ld	0 (iy), #0x20
      000EBA FD 23            [10] 1968 	inc	iy
      000EBC FD 36 00 20      [19] 1969 	ld	0 (iy), #0x20
      000EC0 FD 23            [10] 1970 	inc	iy
      000EC2 FD 36 00 2D      [19] 1971 	ld	0 (iy), #0x2d
      000EC6 FD 23            [10] 1972 	inc	iy
      000EC8 FD 36 00 2E      [19] 1973 	ld	0 (iy), #0x2e
      000ECC DD 36 80 20      [19] 1974 	ld	-128 (ix), #0x20
      000ED0 DD 36 81 20      [19] 1975 	ld	-127 (ix), #0x20
      000ED4 DD 36 82 20      [19] 1976 	ld	-126 (ix), #0x20
      000ED8 DD 36 83 20      [19] 1977 	ld	-125 (ix), #0x20
      000EDC DD 36 84 20      [19] 1978 	ld	-124 (ix), #0x20
      000EE0 DD 36 85 20      [19] 1979 	ld	-123 (ix), #0x20
      000EE4 DD 36 86 20      [19] 1980 	ld	-122 (ix), #0x20
      000EE8 DD 36 87 20      [19] 1981 	ld	-121 (ix), #0x20
      000EEC DD 36 88 20      [19] 1982 	ld	-120 (ix), #0x20
      000EF0 DD 36 89 20      [19] 1983 	ld	-119 (ix), #0x20
      000EF4 DD 36 8A 20      [19] 1984 	ld	-118 (ix), #0x20
      000EF8 DD 36 8B 20      [19] 1985 	ld	-117 (ix), #0x20
      000EFC DD 36 8C 20      [19] 1986 	ld	-116 (ix), #0x20
      000F00 DD 36 8D 20      [19] 1987 	ld	-115 (ix), #0x20
      000F04 DD 36 8E 20      [19] 1988 	ld	-114 (ix), #0x20
      000F08 DD 36 8F 20      [19] 1989 	ld	-113 (ix), #0x20
      000F0C DD 36 90 20      [19] 1990 	ld	-112 (ix), #0x20
      000F10 DD 36 91 20      [19] 1991 	ld	-111 (ix), #0x20
      000F14 DD 36 92 20      [19] 1992 	ld	-110 (ix), #0x20
      000F18 DD 36 93 20      [19] 1993 	ld	-109 (ix), #0x20
      000F1C DD 36 94 20      [19] 1994 	ld	-108 (ix), #0x20
      000F20 DD 36 95 20      [19] 1995 	ld	-107 (ix), #0x20
      000F24 DD 36 96 20      [19] 1996 	ld	-106 (ix), #0x20
      000F28 DD 36 97 20      [19] 1997 	ld	-105 (ix), #0x20
      000F2C DD 36 98 20      [19] 1998 	ld	-104 (ix), #0x20
      000F30 DD 36 99 20      [19] 1999 	ld	-103 (ix), #0x20
      000F34 DD 36 9A 20      [19] 2000 	ld	-102 (ix), #0x20
      000F38 DD 36 9B 20      [19] 2001 	ld	-101 (ix), #0x20
      000F3C DD 36 9C 20      [19] 2002 	ld	-100 (ix), #0x20
      000F40 DD 36 9D 20      [19] 2003 	ld	-99 (ix), #0x20
      000F44 DD 36 9E 2E      [19] 2004 	ld	-98 (ix), #0x2e
      000F48 DD 36 9F 2D      [19] 2005 	ld	-97 (ix), #0x2d
      000F4C DD 36 A0 20      [19] 2006 	ld	-96 (ix), #0x20
      000F50 DD 36 A1 2E      [19] 2007 	ld	-95 (ix), #0x2e
      000F54 DD 36 A2 3A      [19] 2008 	ld	-94 (ix), #0x3a
      000F58 DD 36 A3 0A      [19] 2009 	ld	-93 (ix), #0x0a
      000F5C DD 36 A4 3A      [19] 2010 	ld	-92 (ix), #0x3a
      000F60 DD 36 A5 2E      [19] 2011 	ld	-91 (ix), #0x2e
      000F64 DD 36 A6 20      [19] 2012 	ld	-90 (ix), #0x20
      000F68 DD 36 A7 2E      [19] 2013 	ld	-89 (ix), #0x2e
      000F6C DD 36 A8 2E      [19] 2014 	ld	-88 (ix), #0x2e
      000F70 DD 36 A9 2E      [19] 2015 	ld	-87 (ix), #0x2e
      000F74 DD 36 AA 2E      [19] 2016 	ld	-86 (ix), #0x2e
      000F78 DD 36 AB 2E      [19] 2017 	ld	-85 (ix), #0x2e
      000F7C DD 36 AC 2E      [19] 2018 	ld	-84 (ix), #0x2e
      000F80 DD 36 AD 2E      [19] 2019 	ld	-83 (ix), #0x2e
      000F84 DD 36 AE 2E      [19] 2020 	ld	-82 (ix), #0x2e
      000F88 DD 36 AF 2E      [19] 2021 	ld	-81 (ix), #0x2e
      000F8C DD 36 B0 2E      [19] 2022 	ld	-80 (ix), #0x2e
      000F90 DD 36 B1 2E      [19] 2023 	ld	-79 (ix), #0x2e
      000F94 DD 36 B2 2E      [19] 2024 	ld	-78 (ix), #0x2e
      000F98 DD 36 B3 2E      [19] 2025 	ld	-77 (ix), #0x2e
      000F9C DD 36 B4 2E      [19] 2026 	ld	-76 (ix), #0x2e
      000FA0 DD 36 B5 2E      [19] 2027 	ld	-75 (ix), #0x2e
      000FA4 DD 36 B6 2E      [19] 2028 	ld	-74 (ix), #0x2e
      000FA8 DD 36 B7 2E      [19] 2029 	ld	-73 (ix), #0x2e
      000FAC DD 36 B8 2E      [19] 2030 	ld	-72 (ix), #0x2e
      000FB0 DD 36 B9 2E      [19] 2031 	ld	-71 (ix), #0x2e
      000FB4 DD 36 BA 2E      [19] 2032 	ld	-70 (ix), #0x2e
      000FB8 DD 36 BB 2E      [19] 2033 	ld	-69 (ix), #0x2e
      000FBC DD 36 BC 2E      [19] 2034 	ld	-68 (ix), #0x2e
      000FC0 DD 36 BD 2E      [19] 2035 	ld	-67 (ix), #0x2e
      000FC4 DD 36 BE 2E      [19] 2036 	ld	-66 (ix), #0x2e
      000FC8 DD 36 BF 2E      [19] 2037 	ld	-65 (ix), #0x2e
      000FCC DD 36 C0 2E      [19] 2038 	ld	-64 (ix), #0x2e
      000FD0 DD 36 C1 2E      [19] 2039 	ld	-63 (ix), #0x2e
      000FD4 DD 36 C2 2E      [19] 2040 	ld	-62 (ix), #0x2e
      000FD8 DD 36 C3 2E      [19] 2041 	ld	-61 (ix), #0x2e
      000FDC DD 36 C4 2E      [19] 2042 	ld	-60 (ix), #0x2e
      000FE0 DD 36 C5 2E      [19] 2043 	ld	-59 (ix), #0x2e
      000FE4 DD 36 C6 2E      [19] 2044 	ld	-58 (ix), #0x2e
      000FE8 DD 36 C7 2E      [19] 2045 	ld	-57 (ix), #0x2e
      000FEC DD 36 C8 2E      [19] 2046 	ld	-56 (ix), #0x2e
      000FF0 DD 36 C9 20      [19] 2047 	ld	-55 (ix), #0x20
      000FF4 DD 36 CA 3A      [19] 2048 	ld	-54 (ix), #0x3a
      000FF8 DD 36 CB 3A      [19] 2049 	ld	-53 (ix), #0x3a
      000FFC DD 36 CC 0A      [19] 2050 	ld	-52 (ix), #0x0a
      001000 DD 36 CD 20      [19] 2051 	ld	-51 (ix), #0x20
      001004 DD 36 CE 60      [19] 2052 	ld	-50 (ix), #0x60
      001008 DD 36 CF 2E      [19] 2053 	ld	-49 (ix), #0x2e
      00100C DD 36 D0 2E      [19] 2054 	ld	-48 (ix), #0x2e
      001010 DD 36 D1 2E      [19] 2055 	ld	-47 (ix), #0x2e
      001014 DD 36 D2 2E      [19] 2056 	ld	-46 (ix), #0x2e
      001018 DD 36 D3 2E      [19] 2057 	ld	-45 (ix), #0x2e
      00101C DD 36 D4 2E      [19] 2058 	ld	-44 (ix), #0x2e
      001020 DD 36 D5 2E      [19] 2059 	ld	-43 (ix), #0x2e
      001024 DD 36 D6 2E      [19] 2060 	ld	-42 (ix), #0x2e
      001028 DD 36 D7 2E      [19] 2061 	ld	-41 (ix), #0x2e
      00102C DD 36 D8 2E      [19] 2062 	ld	-40 (ix), #0x2e
      001030 DD 36 D9 2E      [19] 2063 	ld	-39 (ix), #0x2e
      001034 DD 36 DA 2E      [19] 2064 	ld	-38 (ix), #0x2e
      001038 DD 36 DB 2E      [19] 2065 	ld	-37 (ix), #0x2e
      00103C DD 36 DC 2E      [19] 2066 	ld	-36 (ix), #0x2e
      001040 DD 36 DD 2E      [19] 2067 	ld	-35 (ix), #0x2e
      001044 DD 36 DE 2E      [19] 2068 	ld	-34 (ix), #0x2e
      001048 DD 36 DF 2E      [19] 2069 	ld	-33 (ix), #0x2e
      00104C DD 36 E0 2E      [19] 2070 	ld	-32 (ix), #0x2e
      001050 DD 36 E1 2E      [19] 2071 	ld	-31 (ix), #0x2e
      001054 DD 36 E2 2E      [19] 2072 	ld	-30 (ix), #0x2e
      001058 DD 36 E3 2E      [19] 2073 	ld	-29 (ix), #0x2e
      00105C DD 36 E4 2E      [19] 2074 	ld	-28 (ix), #0x2e
      001060 DD 36 E5 2E      [19] 2075 	ld	-27 (ix), #0x2e
      001064 DD 36 E6 2E      [19] 2076 	ld	-26 (ix), #0x2e
      001068 DD 36 E7 2E      [19] 2077 	ld	-25 (ix), #0x2e
      00106C DD 36 E8 2E      [19] 2078 	ld	-24 (ix), #0x2e
      001070 DD 36 E9 2E      [19] 2079 	ld	-23 (ix), #0x2e
      001074 DD 36 EA 2E      [19] 2080 	ld	-22 (ix), #0x2e
      001078 DD 36 EB 2E      [19] 2081 	ld	-21 (ix), #0x2e
      00107C DD 36 EC 2E      [19] 2082 	ld	-20 (ix), #0x2e
      001080 DD 36 ED 2E      [19] 2083 	ld	-19 (ix), #0x2e
      001084 DD 36 EE 2E      [19] 2084 	ld	-18 (ix), #0x2e
      001088 DD 36 EF 2E      [19] 2085 	ld	-17 (ix), #0x2e
      00108C DD 36 F0 2E      [19] 2086 	ld	-16 (ix), #0x2e
      001090 DD 36 F1 2E      [19] 2087 	ld	-15 (ix), #0x2e
      001094 DD 36 F2 2E      [19] 2088 	ld	-14 (ix), #0x2e
      001098 DD 36 F3 2F      [19] 2089 	ld	-13 (ix), #0x2f
      00109C DD 36 F4 20      [19] 2090 	ld	-12 (ix), #0x20
      0010A0 DD 36 F5 0A      [19] 2091 	ld	-11 (ix), #0x0a
      0010A4 DD 36 F6 0A      [19] 2092 	ld	-10 (ix), #0x0a
      0010A8 DD 36 F7 0A      [19] 2093 	ld	-9 (ix), #0x0a
      0010AC DD 36 F8 00      [19] 2094 	ld	-8 (ix), #0x00
                                   2095 ;src/fetch6.c:35: uint16_t size1 = sizeof(buf);
      0010B0 DD 36 F9 E5      [19] 2096 	ld	-7 (ix), #0xe5
      0010B4 DD 36 FA 02      [19] 2097 	ld	-6 (ix), #0x02
                                   2098 ;src/fetch6.c:36: uint16_t size2 = strlen(ver);
      0010B8 C5               [11] 2099 	push	bc
      0010B9 21 F3 02         [10] 2100 	ld	hl, #0x02f3
      0010BC CDr00r00         [17] 2101 	call	_strlen
      0010BF C1               [10] 2102 	pop	bc
      0010C0 DD 73 FB         [19] 2103 	ld	-5 (ix), e
      0010C3 DD 72 FC         [19] 2104 	ld	-4 (ix), d
                                   2105 ;src/fetch6.c:37: zos_err_t ret = write(dev, buf, &size1);
      0010C6 21 E5 02         [10] 2106 	ld	hl, #741
      0010C9 39               [11] 2107 	add	hl, sp
      0010CA 59               [ 4] 2108 	ld	e, c
      0010CB 50               [ 4] 2109 	ld	d, b
      0010CC C5               [11] 2110 	push	bc
      0010CD E5               [11] 2111 	push	hl
      0010CE DD 7E FF         [19] 2112 	ld	a, -1 (ix)
      0010D1 CDr00r00         [17] 2113 	call	_write
      0010D4 21 E9 02         [10] 2114 	ld	hl, #745
      0010D7 39               [11] 2115 	add	hl, sp
      0010D8 E5               [11] 2116 	push	hl
      0010D9 11 F3 02         [10] 2117 	ld	de, #0x02f3
      0010DC DD 7E FF         [19] 2118 	ld	a, -1 (ix)
      0010DF CDr00r00         [17] 2119 	call	_write
      0010E2 C1               [10] 2120 	pop	bc
      0010E3 5F               [ 4] 2121 	ld	e, a
                                   2122 ;src/fetch6.c:40: if (ret != ERR_SUCCESS) {
      0010E4 B7               [ 4] 2123 	or	a, a
      0010E5 28 11            [12] 2124 	jr	Z, 00104$
                                   2125 ;src/fetch6.c:41: printf("Error %d when writing2\n", ret);
      0010E7 16 00            [ 7] 2126 	ld	d, #0x00
      0010E9 D5               [11] 2127 	push	de
      0010EA 21r8Fr11         [10] 2128 	ld	hl, #___str_3
      0010ED E5               [11] 2129 	push	hl
      0010EE CDr00r00         [17] 2130 	call	_printf
      0010F1 F1               [10] 2131 	pop	af
      0010F2 F1               [10] 2132 	pop	af
                                   2133 ;src/fetch6.c:42: return 2;
      0010F3 11 02 00         [10] 2134 	ld	de, #0x0002
      0010F6 18 71            [12] 2135 	jr	00112$
      0010F8                       2136 00104$:
                                   2137 ;src/fetch6.c:46: close(dev);
      0010F8 C5               [11] 2138 	push	bc
      0010F9 DD 7E FF         [19] 2139 	ld	a, -1 (ix)
      0010FC CDr00r00         [17] 2140 	call	_close
      0010FF AF               [ 4] 2141 	xor	a, a
      001100 F5               [11] 2142 	push	af
      001101 33               [ 6] 2143 	inc	sp
      001102 21r6Er11         [10] 2144 	ld	hl, #___str_0
      001105 CDr00r00         [17] 2145 	call	_open
      001108 C1               [10] 2146 	pop	bc
      001109 DD 77 FF         [19] 2147 	ld	-1 (ix), a
                                   2148 ;src/fetch6.c:52: if (dev2 < 0) {
      00110C DD CB FF 7E      [20] 2149 	bit	7, -1 (ix)
      001110 28 16            [12] 2150 	jr	Z, 00106$
                                   2151 ;src/fetch6.c:53: printf("Error %d occured3\n", dev2);
      001112 DD 7E FF         [19] 2152 	ld	a, -1 (ix)
      001115 4F               [ 4] 2153 	ld	c, a
      001116 07               [ 4] 2154 	rlca
      001117 9F               [ 4] 2155 	sbc	a, a
      001118 47               [ 4] 2156 	ld	b, a
      001119 C5               [11] 2157 	push	bc
      00111A 21rA7r11         [10] 2158 	ld	hl, #___str_4
      00111D E5               [11] 2159 	push	hl
      00111E CDr00r00         [17] 2160 	call	_printf
      001121 F1               [10] 2161 	pop	af
      001122 F1               [10] 2162 	pop	af
                                   2163 ;src/fetch6.c:54: return 1;
      001123 11 01 00         [10] 2164 	ld	de, #0x0001
      001126 18 41            [12] 2165 	jr	00112$
      001128                       2166 00106$:
                                   2167 ;src/fetch6.c:58: uint16_t size = 256;
      001128 DD 36 FD 00      [19] 2168 	ld	-3 (ix), #0x00
      00112C DD 36 FE 01      [19] 2169 	ld	-2 (ix), #0x01
                                   2170 ;src/fetch6.c:61: while (size != 0) {
      001130                       2171 00109$:
      001130 DD 7E FE         [19] 2172 	ld	a, -2 (ix)
      001133 DD B6 FD         [19] 2173 	or	a, -3 (ix)
      001136 28 28            [12] 2174 	jr	Z, 00111$
                                   2175 ;src/fetch6.c:62: ret = read(dev2, buf, &size);
      001138 21 E9 02         [10] 2176 	ld	hl, #745
      00113B 39               [11] 2177 	add	hl, sp
      00113C E5               [11] 2178 	push	hl
      00113D 21 02 00         [10] 2179 	ld	hl, #2
      001140 39               [11] 2180 	add	hl, sp
      001141 EB               [ 4] 2181 	ex	de, hl
      001142 DD 7E FF         [19] 2182 	ld	a, -1 (ix)
      001145 CDr00r00         [17] 2183 	call	_read
                                   2184 ;src/fetch6.c:64: if (size != 0)
      001148 DD 7E FE         [19] 2185 	ld	a, -2 (ix)
      00114B DD B6 FD         [19] 2186 	or	a, -3 (ix)
      00114E 28 E0            [12] 2187 	jr	Z, 00109$
                                   2188 ;src/fetch6.c:65: write(DEV_STDOUT, buf, &size);
      001150 21 E9 02         [10] 2189 	ld	hl, #745
      001153 39               [11] 2190 	add	hl, sp
      001154 E5               [11] 2191 	push	hl
      001155 21 02 00         [10] 2192 	ld	hl, #2
      001158 39               [11] 2193 	add	hl, sp
      001159 EB               [ 4] 2194 	ex	de, hl
      00115A AF               [ 4] 2195 	xor	a, a
      00115B CDr00r00         [17] 2196 	call	_write
      00115E 18 D0            [12] 2197 	jr	00109$
      001160                       2198 00111$:
                                   2199 ;src/fetch6.c:69: close(dev2);
      001160 DD 7E FF         [19] 2200 	ld	a, -1 (ix)
      001163 CDr00r00         [17] 2201 	call	_close
                                   2202 ;src/fetch6.c:70: return 0;
      001166 11 00 00         [10] 2203 	ld	de, #0x0000
      001169                       2204 00112$:
                                   2205 ;src/fetch6.c:71: }
      001169 DD F9            [10] 2206 	ld	sp, ix
      00116B DD E1            [14] 2207 	pop	ix
      00116D C9               [10] 2208 	ret
      00116E                       2209 ___str_0:
      00116E 42 3A 2F 69 6E 66 6F  2210 	.ascii "B:/info.data"
             2E 64 61 74 61
      00117A 00                    2211 	.db 0x00
      00117B                       2212 ___str_2:
      00117B 45 72 72 6F 72 20 25  2213 	.ascii "Error %d occurred1"
             64 20 6F 63 63 75 72
             72 65 64 31
      00118D 0A                    2214 	.db 0x0a
      00118E 00                    2215 	.db 0x00
      00118F                       2216 ___str_3:
      00118F 45 72 72 6F 72 20 25  2217 	.ascii "Error %d when writing2"
             64 20 77 68 65 6E 20
             77 72 69 74 69 6E 67
             32
      0011A5 0A                    2218 	.db 0x0a
      0011A6 00                    2219 	.db 0x00
      0011A7                       2220 ___str_4:
      0011A7 45 72 72 6F 72 20 25  2221 	.ascii "Error %d occured3"
             64 20 6F 63 63 75 72
             65 64 33
      0011B8 0A                    2222 	.db 0x0a
      0011B9 00                    2223 	.db 0x00
                                   2224 	.area _TEXT
                                   2225 	.area _INITIALIZER
                                   2226 	.area _CABS (ABS)
